(dp0
S'y'
p1
ccvxopt.base
matrix
p2
((lp3
F0.049500000000000002
aF0.034200000000000001
aF0.052499999999999998
aF0.034200000000000001
aF0.048500000000000001
aF0.0567
aF0.028500000000000001
aF0.1542
aF0.055500000000000001
aF0.1192
aF0.063500000000000001
aF0.20669999999999999
aF0.1885
aF-0.055800000000000002
aF0.1145
aF0.22919999999999999
aF0.098500000000000004
aF0.2767
aF0.2485
aF-0.073300000000000004
aF0.27050000000000002
aF0.30170000000000002
aF0.36749999999999999
aF0.25669999999999998
aF0.36649999999999999
aF0.34920000000000001
aF0.3145
aF0.74919999999999998
aF0.46150000000000002
aF0.40670000000000001
aF0.50249999999999995
aF0.49170000000000003
aF0.53549999999999998
aF0.59419999999999995
aF0.58350000000000002
aF0.29170000000000001
aF0.4355
aF0.44169999999999998
aF0.3175
aF0.26669999999999999
aF0.22650000000000001
aF0.1067
aF0.16550000000000001
aF0.17169999999999999
aF0.1295
aF0.0167
aF-0.037499999999999999
aF0.064199999999999993
aF-0.20150000000000001
aF0.076700000000000004
aF-0.2445
aF-0.093299999999999994
aF-0.20849999999999999
aF-0.18329999999999999
aF-0.20549999999999999
aF-0.20830000000000001
aF-0.29149999999999998
aF-0.15329999999999999
aF-0.3725
aF-0.21079999999999999
aF-0.39750000000000002
aF-0.4083
aF-0.45850000000000002
aF-0.42580000000000001
aF-0.51749999999999996
aF-0.4108
aF-0.4415
aF-0.69579999999999997
aF-0.44450000000000001
aF-0.71830000000000005
aF-0.60650000000000004
aF-0.46579999999999999
aF-0.5645
aF-0.81330000000000002
aF-0.38750000000000001
aF-1.0058
aF-0.3775
aF-0.62080000000000002
aF-0.41149999999999998
aF-0.67830000000000001
aF-0.42149999999999999
aF-0.78080000000000005
aF-0.34749999999999998
aF-0.64829999999999999
aF-0.29849999999999999
aF-0.50329999999999997
aF-0.29949999999999999
aF-0.30830000000000002
aF-0.11550000000000001
aF-0.44829999999999998
aF-0.0315
aF-0.20330000000000001
aF-0.077499999999999999
aF0.031699999999999999
aF0.0155
aF-0.24579999999999999
aF0.1125
aF0.054199999999999998
aF0.26850000000000002
aF0.1242
aF0.28649999999999998
aF0.064199999999999993
aF0.16850000000000001
aF0.37169999999999997
aF0.27350000000000002
aF0.1017
aF0.2505
aF0.28670000000000001
aF0.1245
aF0.53420000000000001
aF0.19450000000000001
aF0.084199999999999997
aF0.1885
aF0.2392
aF0.17949999999999999
aF0.19670000000000001
aF0.1605
aF-0.1208
aF0.092499999999999999
aF0.021700000000000001
aF0.13950000000000001
aF-0.14080000000000001
aF0.079500000000000001
aF-0.21829999999999999
aF0.017500000000000002
aF-0.31580000000000003
aF0.021499999999999998
aF-0.3533
aF0.0085000000000000006
aF-0.15329999999999999
aF0.042500000000000003
aF-0.26829999999999998
aF0.024500000000000001
aF-0.26579999999999998
aF0.029499999999999998
aF-0.17829999999999999
aF0.090499999999999997
aF-0.26329999999999998
aF0.13850000000000001
aF-0.27579999999999999
aF0.18049999999999999
aF-0.2258
aF0.20349999999999999
aF-0.038300000000000001
aF0.3095
aF0.0167
aF0.32450000000000001
aF0.36919999999999997
aF0.33550000000000002
aF0.75170000000000003
aF0.59950000000000003
aF0.49170000000000003
aF0.76549999999999996
aF0.70169999999999999
aF0.79749999999999999
aF1.1367
aF0.98050000000000004
aF0.83169999999999999
aF1.1445000000000001
aF0.76919999999999999
aF1.2124999999999999
aF0.92169999999999996
aF1.1595
aF0.93169999999999997
aF1.1525000000000001
aF0.79420000000000002
aF1.1895
aF0.68669999999999998
aF1.0765
aF0.76170000000000004
aF0.96150000000000002
aF0.63419999999999999
aF0.88449999999999995
aF0.58169999999999999
aF0.82950000000000002
aF0.55169999999999997
aF0.70850000000000002
aF0.43919999999999998
aF0.51749999999999996
aF0.47920000000000001
aF0.3765
aF0.53169999999999995
aF0.21249999999999999
aF0.63670000000000004
aF0.071499999999999994
aF0.51919999999999999
aF-0.0385
aF0.41170000000000001
aF-0.14249999999999999
aF0.57420000000000004
aF-0.20150000000000001
aF0.45419999999999999
aF-0.33050000000000002
aF0.38169999999999998
aF-0.44850000000000001
aF0.41420000000000001
aF-0.45450000000000002
aF0.30170000000000002
aF-0.43149999999999999
aF0.28920000000000001
aF-0.46050000000000002
aF0.34420000000000001
aF-0.51549999999999996
aF0.36919999999999997
aF-0.44850000000000001
aF0.32419999999999999
aF-0.33750000000000002
aF0.42920000000000003
aF-0.2235
aF0.49669999999999997
aF-0.051499999999999997
aF0.46920000000000001
aF0.1265
aF0.56669999999999998
aF0.35749999999999998
aF0.36170000000000002
aF0.49149999999999999
aF0.25419999999999998
aF0.48249999999999998
aF0.4667
aF0.57250000000000001
aF0.28920000000000001
aF0.66649999999999998
aF0.14169999999999999
aF0.70550000000000002
aF0.091700000000000004
aF0.66149999999999998
aF0.019199999999999998
aF0.54549999999999998
aF0.061699999999999998
aF0.46550000000000002
aF-0.080799999999999997
aF0.32550000000000001
aF-0.14330000000000001
aF0.17649999999999999
aF-0.13830000000000001
aF0.032500000000000001
aF-0.10829999999999999
aF-0.1245
aF0.039199999999999999
aF-0.27850000000000003
aF0.064199999999999993
aF-0.45450000000000002
aF0.12670000000000001
aF-0.51349999999999996
aF0.13919999999999999
aF-0.53949999999999998
aF0.19919999999999999
aF-0.59950000000000003
aF0.26919999999999999
aF-0.62050000000000005
aF0.17169999999999999
aF-0.60050000000000003
aF0.16669999999999999
aF-0.49249999999999999
aF0.0091999999999999998
aF-0.38350000000000001
aF-0.16830000000000001
aF-0.27050000000000002
aF-0.31830000000000003
aF-0.11749999999999999
aF-0.5333
aF-0.0395
aF-0.53580000000000005
aF0.0545
aF-0.74080000000000001
aF0.072499999999999995
aF-0.79330000000000001
aF0.069500000000000006
aF-0.77580000000000005
aF0.14449999999999999
aF-0.99329999999999996
aF0.1265
aF-0.87329999999999997
aF0.20649999999999999
aF-1.0932999999999999
aF0.2185
aF-1.2008000000000001
aF0.083500000000000005
aF-0.92579999999999996
aF0.1225
aF-1.3158000000000001
aF0.099500000000000005
aF-1.3508
aF0.068500000000000005
aF-1.2507999999999999
aF0.095500000000000002
aF-1.4682999999999999
aF0.016500000000000001
aF-1.2133
aF0.022499999999999999
aF-1.2458
aF-0.030499999999999999
aF-1.2558
aF-0.11650000000000001
aF-1.0908
aF-0.17549999999999999
aF-1.1083000000000001
aF-0.28349999999999997
aF-0.95079999999999998
aF-0.30549999999999999
aF-1.0508
aF-0.33750000000000002
aF-1.1083000000000001
aF-0.35149999999999998
aF-1.0407999999999999
aF-0.32950000000000002
aF-1.1133
aF-0.3775
aF-0.95830000000000004
aF-0.38150000000000001
aF-0.92330000000000001
aF-0.40250000000000002
aF-0.85829999999999995
aF-0.42849999999999999
aF-0.71830000000000005
aF-0.4995
aF-0.57079999999999997
aF-0.60350000000000004
aF-0.36830000000000002
aF-0.53749999999999998
aF-0.5383
aF-0.48349999999999999
aF-0.53580000000000005
aF-0.54149999999999998
aF-0.26829999999999998
aF-0.57150000000000001
aF-0.24079999999999999
aF-0.55249999999999999
aF-0.1883
aF-0.48249999999999998
aF-0.14829999999999999
aF-0.51149999999999995
aF0.076700000000000004
aF-0.50749999999999995
aF0.22170000000000001
aF-0.3805
aF0.13170000000000001
aF-0.3155
aF0.1867
aF-0.33050000000000002
aF0.19420000000000001
aF-0.35649999999999998
aF0.2092
aF-0.26550000000000001
aF0.11169999999999999
aF-0.19350000000000001
aF0.0041999999999999997
aF-0.28050000000000003
aF0.12920000000000001
aF-0.31950000000000001
aF0.0016999999999999999
aF-0.30149999999999999
aF-0.1308
aF-0.33950000000000002
aF-0.1183
aF-0.50949999999999995
aF-0.050799999999999998
aF-0.62549999999999994
aF-0.028299999999999999
aF-0.55049999999999999
aF-0.23580000000000001
aF-0.61850000000000005
aF-0.083299999999999999
aF-0.75049999999999994
aF-0.023300000000000001
aF-0.77349999999999997
aF-0.1208
aF-0.72550000000000003
aF0.089200000000000002
aF-0.61950000000000005
aF0.049200000000000001
aF-0.65449999999999997
aF0.26169999999999999
aF-0.63549999999999995
aF0.54920000000000002
aF-0.46550000000000002
aF0.47920000000000001
aF-0.49249999999999999
aF0.86919999999999997
aF-0.51749999999999996
aF0.97170000000000001
aF-0.4415
aF0.90669999999999995
aF-0.40150000000000002
aF1.2292000000000001
aF-0.34849999999999998
aF1.0842000000000001
aF-0.38450000000000001
aF1.0817000000000001
aF-0.36349999999999999
aF1.2492000000000001
aF-0.21149999999999999
aF0.98919999999999997
aF-0.19950000000000001
aF1.0467
aF-0.1595
aF0.95169999999999999
aF0.0155
aF0.53669999999999995
aF0.045499999999999999
aF0.67420000000000002
aF-0.041500000000000002
aF0.72419999999999995
aF-0.032500000000000001
aF0.38419999999999999
aF0.044499999999999998
aF0.41420000000000001
aF0.14849999999999999
aF0.40920000000000001
aF0.1255
aF0.3992
aF0.070499999999999993
aF0.54920000000000002
aF0.1825
aF0.36420000000000002
aF0.1545
aF0.53669999999999995
aF0.0385
aF0.80920000000000003
aF0.096500000000000002
aF0.60670000000000002
aF0.16350000000000001
aF0.6542
aF0.14449999999999999
aF0.7117
aF0.055500000000000001
aF0.64170000000000005
aF0.030499999999999999
aF0.70669999999999999
aF0.1585
aF0.60170000000000001
aF0.2505
aF0.53169999999999995
aF0.3175
aF0.45419999999999999
aF0.45450000000000002
aF0.30669999999999997
aF0.62450000000000006
aF0.1217
aF0.67449999999999999
aF-0.0083000000000000001
aF0.61150000000000004
aF0.064199999999999993
aF0.64549999999999996
aF-0.0608
aF0.63749999999999996
aF-0.098299999999999998
aF0.5595
aF-0.1183
aF0.54649999999999999
aF-0.4158
aF0.48949999999999999
aF-0.32329999999999998
aF0.41449999999999998
aF-0.24829999999999999
aF0.3105
aF-0.50329999999999997
aF0.14649999999999999
aF-0.40329999999999999
aF0.1065
aF-0.4133
aF0.082500000000000004
aF-0.54579999999999995
aF-0.028500000000000001
aF-0.39579999999999999
aF-0.1245
aF-0.3508
aF-0.11749999999999999
aF-0.50580000000000003
aF-0.13250000000000001
aF-0.46329999999999999
aF-0.3155
aF-0.18329999999999999
aF-0.41649999999999998
aF-0.30580000000000002
aF-0.44750000000000001
aF-0.36080000000000001
aF-0.55149999999999999
aF-0.0458
aF-0.59050000000000002
aF-0.1633
aF-0.58850000000000002
aF-0.1983
aF-0.59850000000000003
aF0.041700000000000001
aF-0.63349999999999995
aF-0.030800000000000001
aF-0.67949999999999999
aF-0.1183
aF-0.65549999999999997
aF-0.090800000000000006
aF-0.58050000000000002
aF-0.23580000000000001
aF-0.5635
aF-0.25330000000000003
aF-0.57850000000000001
aF-0.093299999999999994
aF-0.44350000000000001
aF-0.23830000000000001
aF-0.33550000000000002
aF-0.14580000000000001
aF-0.40749999999999997
aF0.29670000000000002
aF-0.32750000000000001
aF0.076700000000000004
aF-0.2185
aF0.079200000000000007
aF-0.17549999999999999
aF0.29420000000000002
aF-0.096500000000000002
aF0.0091999999999999998
aF-0.10349999999999999
aF0.18920000000000001
aF0.034500000000000003
aF0.12670000000000001
aF0.13950000000000001
aF-0.088300000000000003
aF0.0545
aF0.12670000000000001
aF0.1125
aF-0.075800000000000006
aF0.1615
aF-0.078299999999999995
aF0.1215
aF0.14419999999999999
aF0.14449999999999999
aF-0.0458
aF0.16650000000000001
aF-0.0033
aF0.25850000000000001
aF0.0167
aF0.23350000000000001
aF0.061699999999999998
aF0.1095
aF0.25669999999999998
aF0.17549999999999999
aF0.1517
aF0.2505
aF0.21920000000000001
aF0.24249999999999999
aF0.28920000000000001
aF0.1515
aF0.38919999999999999
aF0.095500000000000002
aF0.54920000000000002
aF0.17749999999999999
aF0.35170000000000001
aF0.14449999999999999
aF0.42170000000000002
aF0.082500000000000004
aF0.44669999999999999
aF0.072499999999999995
aF0.3342
aF-0.080500000000000002
aF0.68420000000000003
aF-0.1245
aF0.42420000000000002
aF-0.1135
aF0.2117
aF-0.20649999999999999
aF0.72170000000000001
aF-0.13650000000000001
aF0.4642
aF-0.094500000000000001
aF0.28170000000000001
aF-0.1855
aF0.66920000000000002
aF-0.1235
aF0.50670000000000004
aF-0.047500000000000001
aF0.62919999999999998
aF0.021499999999999998
aF0.8992
aF0.16450000000000001
aF0.64670000000000005
aF0.1835
aF0.79420000000000002
aF0.16650000000000001
aF0.97170000000000001
aF0.26750000000000002
aF0.65169999999999995
aF0.32850000000000001
aF0.64170000000000005
aF0.33750000000000002
aF0.72670000000000001
aF0.36149999999999999
aF0.56169999999999998
aF0.34549999999999997
aF0.53420000000000001
aF0.33350000000000002
aF0.48170000000000002
aF0.36649999999999999
aF0.2467
aF0.4385
aF0.051700000000000003
aF0.51949999999999996
aF-0.14829999999999999
aF0.52149999999999996
aF-0.30080000000000001
aF0.4985
aF-0.48080000000000001
aF0.53449999999999998
aF-0.72330000000000005
aF0.50849999999999995
aF-0.68830000000000002
aF0.46250000000000002
aF-0.74829999999999997
aF0.46850000000000003
aF-1.0258
aF0.38350000000000001
aF-0.89329999999999998
aF0.27950000000000003
aF-0.7883
aF0.26950000000000002
aF-0.99829999999999997
aF0.2485
aF-1.0407999999999999
aF0.17150000000000001
aF-0.99329999999999996
aF0.0785
aF-0.98829999999999996
aF0.086499999999999994
aF-1.0532999999999999
aF0.18149999999999999
aF-1.1133
aF0.21049999999999999
aF-1.0133000000000001
aF0.1895
aF-0.96830000000000005
aF0.1905
aF-0.88580000000000003
aF0.2185
aF-0.83579999999999999
aF0.22850000000000001
aF-0.82079999999999997
aF0.23449999999999999
aF-0.76829999999999998
aF0.2165
aF-0.61329999999999996
aF0.19550000000000001
aF-0.5383
aF0.20749999999999999
aF-0.72829999999999995
aF0.1275
aF-0.58330000000000004
aF0.14849999999999999
aF-0.56579999999999997
aF0.28949999999999998
aF-0.94579999999999997
aF0.14649999999999999
aF-0.67330000000000001
aF-0.043499999999999997
aF-0.60829999999999995
aF-0.064500000000000002
aF-1.0383
aF-0.1525
aF-0.80830000000000002
aF-0.22550000000000001
aF-0.82079999999999997
aF-0.32750000000000001
aF-0.99329999999999996
aF-0.4395
aF-0.82079999999999997
aF-0.45650000000000002
aF-0.90580000000000005
aF-0.51349999999999996
aF-0.93079999999999996
aF-0.48649999999999999
aF-0.92330000000000001
aF-0.41249999999999998
aF-0.8458
aF-0.39750000000000002
aF-0.70830000000000004
aF-0.3765
aF-0.77580000000000005
aF-0.33850000000000002
aF-0.67079999999999995
aF-0.1925
aF-0.6008
aF0.0135
aF-0.69579999999999997
aF0.098500000000000004
aF-0.55830000000000002
aF0.079500000000000001
aF-0.32579999999999998
aF0.1115
aF-0.2908
aF0.2445
aF-0.32079999999999997
aF0.27450000000000002
aF0.046699999999999998
aF0.28349999999999997
aF0.33169999999999999
aF0.48449999999999999
aF0.076700000000000004
aF0.5625
aF0.30669999999999997
aF0.40350000000000003
aF0.80920000000000003
aF0.3775
aF0.71919999999999995
aF0.47849999999999998
aF0.7742
aF0.52749999999999997
aF1.0066999999999999
aF0.47449999999999998
aF1.0042
aF0.4385
aF0.97419999999999995
aF0.47049999999999997
aF0.95669999999999999
aF0.38350000000000001
aF1.0491999999999999
aF0.23649999999999999
aF1.0166999999999999
aF0.20050000000000001
aF0.92669999999999997
aF0.14849999999999999
aF1.1567000000000001
aF0.026499999999999999
aF1.2891999999999999
aF-0.020500000000000001
aF1.1016999999999999
aF-0.0155
aF1.1667000000000001
aF-0.1045
aF1.4792000000000001
aF-0.28649999999999998
aF1.4992000000000001
aF-0.39750000000000002
aF1.3217000000000001
aF-0.3785
aF1.2517
aF-0.41249999999999998
aF1.3816999999999999
aF-0.46150000000000002
aF1.3142
aF-0.45750000000000002
aF1.2217
aF-0.45850000000000002
aF1.4592000000000001
aF-0.35349999999999998
aF1.3667
aF-0.18049999999999999
aF1.1367
aF-0.053499999999999999
aF1.2642
aF0.030499999999999999
aF1.2717000000000001
aF0.066500000000000004
aF1.1567000000000001
aF0.20050000000000001
aF0.88419999999999999
aF0.34849999999999998
aF0.76919999999999999
aF0.39650000000000002
aF0.92169999999999996
aF0.49249999999999999
aF0.65920000000000001
aF0.5645
aF0.55420000000000003
aF0.60650000000000004
aF0.64670000000000005
aF0.6915
aF0.47170000000000001
aF0.74650000000000005
aF0.49919999999999998
aF0.8165
aF0.5242
aF0.78849999999999998
aF0.48920000000000002
aF0.63549999999999995
aF0.57920000000000005
aF0.55549999999999999
aF0.48170000000000002
aF0.56950000000000001
aF0.34670000000000001
aF0.48249999999999998
aF0.4667
aF0.3805
aF0.37669999999999998
aF0.38850000000000001
aF0.0717
aF0.32350000000000001
aF0.16669999999999999
aF0.28549999999999998
aF0.066699999999999995
aF0.33550000000000002
aF-0.2858
aF0.3175
aF-0.24829999999999999
aF0.20649999999999999
aF-0.23330000000000001
aF0.017500000000000002
aF-0.3458
aF-0.044499999999999998
aF-0.4733
aF0.022499999999999999
aF-0.54330000000000001
aF0.0044999999999999997
aF-0.46329999999999999
aF-0.0115
aF-0.61329999999999996
aF-0.087499999999999994
aF-0.52580000000000005
aF-0.11849999999999999
aF-0.49330000000000002
aF-0.0115
aF-0.82330000000000003
aF-0.00050000000000000001
aF-0.62329999999999997
aF0.0385
aF-0.54330000000000001
aF0.0785
aF-0.71579999999999999
aF0.020500000000000001
aF-0.59330000000000005
aF0.042500000000000003
aF-0.68079999999999996
aF0.0135
aF-0.48830000000000001
aF0.0155
aF-0.35830000000000001
aF0.096500000000000002
aF-0.61580000000000001
aF0.026499999999999999
aF-0.42330000000000001
aF-0.052499999999999998
aF-0.29580000000000001
aF-0.0195
aF-0.49580000000000002
aF-0.016500000000000001
aF-0.42080000000000001
aF-0.094500000000000001
aF-0.32329999999999998
aF-0.1195
aF-0.56579999999999997
aF-0.1215
aF-0.62829999999999997
aF-0.20549999999999999
aF-0.45079999999999998
aF-0.1875
aF-0.70830000000000004
aF-0.20649999999999999
aF-0.70579999999999998
aF-0.26050000000000001
aF-0.46329999999999999
aF-0.2195
aF-0.78580000000000005
aF-0.34849999999999998
aF-0.63329999999999997
aF-0.39750000000000002
aF-0.60829999999999995
aF-0.35549999999999998
aF-0.9133
aF-0.54749999999999999
aF-0.45829999999999999
aF-0.67449999999999999
aF-0.44829999999999998
aF-0.72250000000000003
aF-0.65080000000000005
aF-0.8085
aF-0.28079999999999999
aF-0.81950000000000001
aF-0.32579999999999998
aF-0.89749999999999996
aF-0.32079999999999997
aF-0.97350000000000003
aF-0.1608
aF-1.0065
aF-0.20580000000000001
aF-1.0395000000000001
aF-0.17829999999999999
aF-0.92249999999999999
aF-0.33579999999999999
aF-0.77049999999999996
aF-0.27329999999999999
aF-0.66249999999999998
aF-0.16830000000000001
aF-0.58250000000000002
aF-0.23830000000000001
aF-0.49049999999999999
aF-0.18079999999999999
aF-0.33150000000000002
aF-0.27829999999999999
aF-0.25850000000000001
aF-0.21579999999999999
aF-0.29449999999999998
aF0.0016999999999999999
aF-0.24249999999999999
aF-0.1633
aF-0.2555
aF0.041700000000000001
aF-0.31850000000000001
aF0.2467
aF-0.2455
aF-0.040800000000000003
aF-0.17849999999999999
aF0.086699999999999999
aF-0.1245
aF0.039199999999999999
aF-0.1095
aF-0.2233
aF-0.2235
aF0.024199999999999999
aF-0.19850000000000001
aF-0.2208
aF-0.15049999999999999
aF-0.55579999999999996
aF-0.30049999999999999
aF-0.32329999999999998
aF-0.39950000000000002
aF-0.45079999999999998
aF-0.43049999999999999
aF-0.51829999999999998
aF-0.4365
aF-0.40329999999999999
aF-0.39550000000000002
aF-0.5383
aF-0.38650000000000001
aF-0.46329999999999999
aF-0.34150000000000003
aF-0.52580000000000005
aF-0.34150000000000003
aF-0.67579999999999996
aF-0.40649999999999997
aF-0.65080000000000005
aF-0.35049999999999998
aF-0.77080000000000004
aF-0.1615
aF-0.85580000000000001
aF-0.022499999999999999
aF-0.80830000000000002
aF-0.028500000000000001
aF-0.72829999999999995
aF0.0044999999999999997
aF-0.7208
aF0.096500000000000002
aF-0.70079999999999998
aF0.13450000000000001
aF-0.56079999999999997
aF0.13850000000000001
aF-0.51080000000000003
aF0.14249999999999999
aF-0.48330000000000001
aF0.1855
aF-0.45079999999999998
aF0.23549999999999999
aF-0.51329999999999998
aF0.29849999999999999
aF-0.58330000000000004
aF0.45050000000000001
aF-0.6633
aF0.51449999999999996
aF-0.53580000000000005
aF0.51249999999999996
aF-0.50080000000000002
aF0.52049999999999996
aF-0.55830000000000002
aF0.48749999999999999
aF-0.23830000000000001
aF0.57950000000000002
aF-0.1583
aF0.6875
aF-0.24329999999999999
aF0.64849999999999997
aF0.021700000000000001
aF0.63349999999999995
aF0.1142
aF0.70050000000000001
aF0.014200000000000001
aF0.71850000000000003
aF0.21920000000000001
aF0.70150000000000001
aF0.43169999999999997
aF0.73950000000000005
aF0.31919999999999998
aF0.70750000000000002
aF0.41670000000000001
aF0.58350000000000002
aF0.61919999999999997
aF0.50749999999999995
aF0.50670000000000004
aF0.47849999999999998
aF0.54920000000000002
aF0.4425
aF0.66669999999999996
aF0.28050000000000003
aF0.76670000000000005
aF0.1215
aF0.88170000000000004
aF0.20349999999999999
aF0.65169999999999995
aF0.29449999999999998
aF0.60170000000000001
aF0.27250000000000002
aF0.73419999999999996
aF0.27250000000000002
aF0.59670000000000001
aF0.3145
aF0.53920000000000001
aF0.38150000000000001
aF0.5242
aF0.38850000000000001
aF0.54420000000000002
aF0.39550000000000002
aF0.61419999999999997
aF0.4345
aF0.58169999999999999
aF0.3795
aF0.50919999999999999
aF0.1875
aF0.59670000000000001
aF0.0025000000000000001
aF0.79669999999999996
aF0.010500000000000001
aF0.70169999999999999
aF-0.0275
aF0.78920000000000001
aF-0.17549999999999999
aF1.0266999999999999
aF-0.17749999999999999
aF0.8417
aF-0.1235
aF1.0092000000000001
aF-0.1095
aF1.2917000000000001
aF-0.1075
aF1.1892
aF-0.051499999999999997
aF1.1292
aF0.069500000000000006
aF1.0166999999999999
aF0.035499999999999997
aF1.0567
aF-0.0085000000000000006
aF1.0266999999999999
aF0.090499999999999997
aF0.82169999999999999
aF0.1245
aF0.97170000000000001
aF0.089499999999999996
aF0.89419999999999999
aF-0.0235
aF0.77669999999999995
aF-0.092499999999999999
aF0.81169999999999998
aF-0.055500000000000001
aF0.51670000000000005
aF-0.097500000000000003
aF0.3967
aF-0.1055
aF0.29170000000000001
aF-0.040500000000000001
aF0.019199999999999998
aF-0.040500000000000001
aF-0.020799999999999999
aF-0.052499999999999998
aF-0.1183
aF0.037499999999999999
aF-0.36580000000000001
aF0.2185
aF-0.54330000000000001
aF0.32550000000000001
aF-0.59830000000000005
aF0.35049999999999998
aF-0.74080000000000001
aF0.35949999999999999
aF-0.77829999999999999
aF0.4385
aF-0.76329999999999998
aF0.57050000000000001
aF-0.84830000000000005
aF0.59150000000000003
aF-0.69079999999999997
aF0.59150000000000003
aF-0.57330000000000003
aF0.59650000000000003
aF-0.61080000000000001
aF0.54049999999999998
aF-0.59079999999999999
aF0.55349999999999999
aF-0.69830000000000003
aF0.52549999999999997
aF-0.4733
aF0.52149999999999996
aF-0.26579999999999998
aF0.58050000000000002
aF-0.4083
aF0.49249999999999999
aF-0.1158
aF0.50049999999999994
aF0.0117
aF0.63449999999999995
aF-0.1208
aF0.70250000000000001
aF-0.0458
aF0.64549999999999996
aF0.031699999999999999
aF0.46250000000000002
aF0.19670000000000001
aF0.4365
aF0.091700000000000004
aF0.46650000000000003
aF0.076700000000000004
aF0.3695
aF0.39419999999999999
aF0.36449999999999999
aF0.2767
aF0.42249999999999999
aF0.13420000000000001
aF0.36849999999999999
aF0.26419999999999999
aF0.23150000000000001
aF0.37669999999999998
aF0.22850000000000001
aF0.35170000000000001
aF0.41049999999999998
aF0.2117
aF0.41849999999999998
aF0.47170000000000001
aF0.26650000000000001
aF0.69169999999999998
aF0.27950000000000003
aF0.48670000000000002
aF0.35249999999999998
aF0.56669999999999998
aF0.26150000000000001
aF0.72419999999999995
aF0.085500000000000007
aF0.66920000000000002
aF-0.040500000000000001
aF0.73170000000000002
aF-0.079500000000000001
aF0.6492
aF-0.15049999999999999
aF0.42670000000000002
aF-0.26350000000000001
aF0.34920000000000001
aF-0.23749999999999999
aF0.1192
aF-0.17449999999999999
aF-0.1108
aF-0.30449999999999999
aF-0.14330000000000001
aF-0.34150000000000003
aF-0.4108
aF-0.21049999999999999
aF-0.6583
aF-0.22950000000000001
aF-0.38329999999999997
aF-0.34949999999999998
aF-0.3533
aF-0.4395
aF-0.4783
aF-0.48349999999999999
aF-0.16830000000000001
aF-0.45350000000000001
aF-0.078299999999999995
aF-0.46949999999999997
aF-0.078299999999999995
aF-0.50049999999999994
aF0.1792
aF-0.50849999999999995
aF0.41170000000000001
aF-0.51949999999999996
aF0.4617
aF-0.4995
aF0.44919999999999999
aF-0.47949999999999998
aF0.64670000000000005
aF-0.38950000000000001
aF0.55420000000000003
aF-0.34949999999999998
aF0.30669999999999997
aF-0.39650000000000002
aF0.31669999999999998
aF-0.30049999999999999
aF0.046699999999999998
aF-0.20549999999999999
aF0.091700000000000004
aF-0.14249999999999999
aF0.26169999999999999
aF0.0044999999999999997
aF-0.093299999999999994
aF0.041500000000000002
aF-0.040800000000000003
aF-0.0135
aF0.1467
aF-0.030499999999999999
aF-0.070800000000000002
aF-0.040500000000000001
aF-0.0458
aF0.0035000000000000001
aF-0.1208
aF-0.0085000000000000006
aF-0.17330000000000001
aF-0.10050000000000001
aF0.0117
aF-0.14249999999999999
aF-0.050799999999999998
aF-0.17349999999999999
aF-0.050799999999999998
aF-0.20449999999999999
aF-0.028299999999999999
aF-0.26250000000000001
aF0.0292
aF-0.27250000000000002
aF0.026700000000000002
aF-0.23350000000000001
aF-0.14829999999999999
aF-0.28649999999999998
aF-0.038300000000000001
aF-0.24049999999999999
aF-0.17330000000000001
aF-0.10249999999999999
aF-0.43330000000000002
aF-0.0395
aF-0.38829999999999998
aF0.0015
aF-0.65329999999999999
aF-0.041500000000000002
aF-0.68330000000000002
aF-0.014500000000000001
aF-0.7208
aF0.0785
aF-1.0007999999999999
aF-0.0465
aF-0.71579999999999999
aF-0.14549999999999999
aF-0.68579999999999997
aF-0.1135
aF-0.89329999999999998
aF-0.1525
aF-0.67330000000000001
aF-0.19450000000000001
aF-0.6583
aF-0.22850000000000001
aF-0.54330000000000001
aF-0.13450000000000001
aF-0.44829999999999998
aF-0.035499999999999997
aF-0.43330000000000002
aF-0.061499999999999999
aF-0.25829999999999997
aF-0.049500000000000002
aF-0.2258
aF-0.0155
aF-0.040800000000000003
aF0.043499999999999997
aF-0.043299999999999998
aF0.010500000000000001
aF-0.058299999999999998
aF-0.1235
aF0.26669999999999999
aF-0.1055
aF0.17169999999999999
aF-0.051499999999999997
aF0.036700000000000003
aF-0.082500000000000004
aF0.19420000000000001
aF-0.081500000000000003
aF0.1867
aF-0.0115
aF0.17169999999999999
aF0.050500000000000003
aF0.1867
aF0.0135
aF0.30170000000000002
aF0.052499999999999998
aF0.2717
aF0.1605
aF0.2417
aF0.1615
aF0.4642
aF0.16250000000000001
aF0.29170000000000001
aF0.1915
aF0.15670000000000001
aF0.20050000000000001
aF0.30420000000000003
aF0.14649999999999999
aF0.26669999999999999
aF-0.0094999999999999998
aF0.2467
aF-0.13750000000000001
aF0.26919999999999999
aF-0.28249999999999997
aF0.31169999999999998
aF-0.43149999999999999
aF0.2467
aF-0.5625
aF0.22420000000000001
aF-0.66849999999999998
aF0.32419999999999999
aF-0.66749999999999998
aF0.16420000000000001
aF-0.67049999999999998
aF0.096699999999999994
aF-0.75349999999999995
aF0.22919999999999999
aF-0.88349999999999995
aF0.37169999999999997
aF-0.92849999999999999
aF0.35420000000000001
aF-0.85450000000000004
aF0.14169999999999999
aF-0.83950000000000002
aF0.20669999999999999
aF-0.82050000000000001
aF0.19420000000000001
aF-0.80649999999999999
aF0.089200000000000002
aF-0.8155
aF0.096699999999999994
aF-0.77749999999999997
aF-0.080799999999999997
aF-0.80449999999999999
aF0.036700000000000003
aF-0.77949999999999997
aF0.049200000000000001
aF-0.77849999999999997
aF-0.020799999999999999
aF-0.92849999999999999
aF0.2767
aF-0.98750000000000004
aF0.2492
aF-0.91349999999999998
aF0.2767
aF-0.69650000000000001
aF0.23169999999999999
aF-0.50849999999999995
aF0.16170000000000001
aF-0.52849999999999997
aF0.4617
aF-0.44950000000000001
aF0.19170000000000001
aF-0.4335
aF0.10920000000000001
aF-0.48749999999999999
aF0.23169999999999999
aF-0.44450000000000001
aF-0.075800000000000006
aF-0.46550000000000002
aF0.036700000000000003
aF-0.48249999999999998
aF-0.093299999999999994
aF-0.63049999999999995
aF-0.27079999999999999
aF-0.8075
aF-0.15329999999999999
aF-0.72350000000000003
aF-0.50580000000000003
aF-0.73850000000000005
aF-0.37830000000000003
aF-0.8115
aF-0.2858
aF-0.81950000000000001
aF-0.57830000000000004
aF-0.87250000000000005
aF-0.24829999999999999
aF-0.76849999999999996
aF-0.38080000000000003
aF-0.66849999999999998
aF-0.52580000000000005
aF-0.62050000000000005
aF-0.24329999999999999
aF-0.4365
aF-0.55079999999999996
aF-0.36849999999999999
aF-0.58579999999999999
aF-0.3765
aF-0.45079999999999998
aF-0.30249999999999999
aF-0.68079999999999996
aF-0.19750000000000001
aF-0.70830000000000004
aF-0.064500000000000002
aF-0.83579999999999999
aF-0.0625
aF-0.83830000000000005
aF-0.1065
aF-0.61580000000000001
aF0.012500000000000001
aF-0.7833
aF0.1115
aF-0.79079999999999995
aF0.098500000000000004
aF-0.54330000000000001
aF0.1295
aF-0.61080000000000001
aF0.24149999999999999
aF-0.68330000000000002
aF0.27950000000000003
aF-0.52829999999999999
aF0.26650000000000001
aF-0.49580000000000002
aF0.36149999999999999
aF-0.56079999999999997
aF0.49149999999999999
aF-0.40079999999999999
aF0.57650000000000001
aF-0.2833
aF0.65349999999999997
aF-0.4083
aF0.67649999999999999
aF-0.33829999999999999
aF0.5625
aF0.0067000000000000002
aF0.45750000000000002
aF-0.0683
aF0.40350000000000003
aF-0.2233
aF0.34949999999999998
aF0.0091999999999999998
aF0.30549999999999999
aF0.026700000000000002
aF0.16950000000000001
aF0.1517
aF0.080500000000000002
aF0.28420000000000001
aF0.20449999999999999
aF-0.0533
aF0.2485
aF0.051700000000000003
aF0.2205
aF0.28670000000000001
aF0.33550000000000002
aF-0.065799999999999997
aF0.3715
aF0.044200000000000003
aF0.32550000000000001
aF0.23669999999999999
aF0.33750000000000002
aF0.084199999999999997
aF0.36249999999999999
aF0.2167
aF0.43149999999999999
aF0.22919999999999999
aF0.3695
aF0.28170000000000001
aF0.20349999999999999
aF0.52170000000000005
aF0.21149999999999999
aF0.49919999999999998
aF0.30449999999999999
aF0.37419999999999998
aF0.27350000000000002
aF0.37919999999999998
aF0.15049999999999999
aF0.51419999999999999
aF0.13450000000000001
aF0.41420000000000001
aF0.1615
aF0.26169999999999999
aF0.10150000000000001
aF0.36170000000000002
aF0.1275
aF0.19170000000000001
aF0.2195
aF0.1492
aF0.19450000000000001
aF0.39169999999999999
aF0.1085
aF0.32669999999999999
aF0.1145
aF0.17169999999999999
aF0.14849999999999999
aF0.34420000000000001
aF0.099500000000000005
aF0.47170000000000001
aF0.0625
aF0.2117
aF0.024500000000000001
aF0.13669999999999999
aF-0.043499999999999997
aF0.3392
aF-0.045499999999999999
aF0.20669999999999999
aF-0.0395
aF0.20419999999999999
aF0.044499999999999998
aF0.22170000000000001
aF0.1265
aF0.081699999999999995
aF0.0275
aF0.37169999999999997
aF0.044499999999999998
aF0.32169999999999999
aF0.2165
aF0.074200000000000002
aF0.28949999999999998
aF0.32669999999999999
aF0.3165
aF0.34420000000000001
aF0.28849999999999998
aF0.3417
aF0.27750000000000002
aF0.3992
aF0.26050000000000001
aF0.3367
aF0.098500000000000004
aF0.61670000000000003
aF0.065500000000000003
aF0.64170000000000005
aF0.17349999999999999
aF0.41920000000000002
aF0.1145
aF0.53669999999999995
aF-0.0135
aF0.62919999999999998
aF0.059499999999999997
aF0.38669999999999999
aF0.22950000000000001
aF0.23169999999999999
aF0.1905
aF0.4017
aF0.071499999999999994
aF0.39169999999999999
aF0.061499999999999999
aF0.25919999999999999
aF0.061499999999999999
aF0.37669999999999998
aF-0.018499999999999999
aF0.3392
aF-0.14149999999999999
aF0.32919999999999999
aF-0.1095
aF0.28670000000000001
aF-0.067500000000000004
aF0.16669999999999999
aF-0.27050000000000002
aF0.32169999999999999
aF-0.41149999999999998
aF0.2392
aF-0.3755
aF0.1167
aF-0.40150000000000002
aF0.29670000000000002
aF-0.47949999999999998
aF0.17419999999999999
aF-0.50449999999999995
aF-0.033300000000000003
aF-0.41949999999999998
aF-0.028299999999999999
aF-0.34849999999999998
aF-0.0533
aF-0.33450000000000002
aF-0.1883
aF-0.2235
aF-0.3508
aF-0.072499999999999995
aF-0.42580000000000001
aF-0.010500000000000001
aF-0.61329999999999996
aF-0.036499999999999998
aF-0.79579999999999995
aF-0.058500000000000003
aF-0.79830000000000001
aF0.0025000000000000001
aF-0.90080000000000005
aF0.060499999999999998
aF-1.0358000000000001
aF0.0064999999999999997
aF-1.0233000000000001
aF-0.0625
aF-0.94830000000000003
aF-0.080500000000000002
aF-0.95830000000000004
aF-0.17849999999999999
aF-0.8458
aF-0.26250000000000001
aF-0.77329999999999999
aF-0.2195
aF-0.88829999999999998
aF-0.1925
aF-0.73329999999999995
aF-0.1535
aF-0.74329999999999996
aF-0.040500000000000001
aF-1.0207999999999999
aF0.036499999999999998
aF-0.93830000000000002
aF0.1075
aF-0.94330000000000003
aF0.1275
aF-1.0708
aF0.098500000000000004
aF-0.98080000000000001
aF0.14249999999999999
aF-1.0508
aF0.14449999999999999
aF-1.0233000000000001
aF0.14449999999999999
aF-1.0283
aF0.1605
aF-1.1133
aF0.090499999999999997
aF-0.94330000000000003
aF0.080500000000000002
aF-0.98329999999999995
aF0.1575
aF-1.0358000000000001
aF0.25650000000000001
aF-0.9083
aF0.35649999999999998
aF-0.9083
aF0.32950000000000002
aF-0.67579999999999996
aF0.36549999999999999
aF-0.66830000000000001
aF0.50049999999999994
aF-0.76580000000000004
aF0.53549999999999998
aF-0.4133
aF0.63549999999999995
aF-0.35580000000000001
aF0.72750000000000004
aF-0.28079999999999999
aF0.76449999999999996
aF-0.1008
aF0.84150000000000003
aF-0.33079999999999998
aF0.80549999999999999
aF-0.26079999999999998
aF0.81950000000000001
aF-0.26829999999999998
aF0.87849999999999995
aF-0.55579999999999996
aF0.67349999999999999
aF-0.20580000000000001
aF0.55249999999999999
aF-0.17330000000000001
aF0.62649999999999995
aF-0.41830000000000001
aF0.64849999999999997
aF-0.14080000000000001
aF0.63649999999999995
aF-0.1358
aF0.50349999999999995
aF-0.078299999999999995
aF0.44450000000000001
aF0.0091999999999999998
aF0.50549999999999995
aF-0.2258
aF0.4325
aF-0.098299999999999998
aF0.34949999999999998
aF0.091700000000000004
aF0.28549999999999998
aF0.19170000000000001
aF0.20949999999999999
aF0.36420000000000002
aF0.17949999999999999
aF0.26419999999999999
aF0.16650000000000001
aF0.33169999999999999
aF0.22550000000000001
aF0.36170000000000002
aF0.2145
aF0.25919999999999999
aF-0.030499999999999999
aF0.49419999999999997
aF-0.17949999999999999
aF0.42920000000000003
aF-0.059499999999999997
aF0.11169999999999999
aF0.1215
aF0.096699999999999994
aF0.20250000000000001
aF0.049200000000000001
aF0.1605
aF0.036700000000000003
aF0.11849999999999999
aF0.086699999999999999
aF0.1605
aF-0.080799999999999997
aF0.16450000000000001
aF-0.038300000000000001
aF0.17549999999999999
aF0.1067
aF0.2485
aF-0.0057999999999999996
aF0.13350000000000001
aF0.1192
aF-0.096500000000000002
aF0.22919999999999999
aF-0.19450000000000001
aF0.12920000000000001
aF-0.14949999999999999
aF0.2142
aF-0.0064999999999999997
aF0.0717
aF-0.016500000000000001
aF0.099199999999999997
aF-0.086499999999999994
aF0.28920000000000001
aF0.037499999999999999
aF-0.020799999999999999
aF0.1145
aF0.081699999999999995
aF0.13750000000000001
aF0.29670000000000002
aF0.28949999999999998
aF0.0016999999999999999
aF0.32950000000000002
aF0.30669999999999997
aF0.30549999999999999
aF0.54920000000000002
aF0.3705
aF0.29670000000000002
aF0.42849999999999999
aF0.54169999999999996
aF0.49049999999999999
aF0.82420000000000004
aF0.55549999999999999
aF0.69169999999999998
aF0.5635
aF0.73170000000000002
aF0.58650000000000002
aF0.85170000000000001
aF0.67249999999999999
aF0.73919999999999997
aF0.66749999999999998
aF0.84670000000000001
aF0.66449999999999998
aF0.89419999999999999
aF0.73250000000000004
aF0.72919999999999996
aF0.6905
aF0.95169999999999999
aF0.70450000000000002
aF0.94169999999999998
aF0.75249999999999995
aF0.74670000000000003
aF0.66649999999999998
aF0.97919999999999996
aF0.58450000000000002
aF0.87170000000000003
aF0.44750000000000001
aF0.71419999999999995
aF0.29749999999999999
aF0.80920000000000003
aF0.1825
aF0.72170000000000001
aF0.022499999999999999
aF0.70169999999999999
aF-0.053499999999999999
aF0.5917
aF-0.084500000000000006
aF0.47920000000000001
aF-0.17449999999999999
aF0.51919999999999999
aF-0.23849999999999999
aF0.45419999999999999
aF-0.28849999999999998
aF0.50919999999999999
aF-0.27550000000000002
aF0.55420000000000003
aF-0.2205
aF0.52669999999999995
aF-0.13450000000000001
aF0.45169999999999999
aF-0.045499999999999999
aF0.38669999999999999
aF-0.0195
aF0.42670000000000002
aF0.00050000000000000001
aF0.28170000000000001
aF-0.0155
aF0.30420000000000003
aF0.0054999999999999997
aF0.34920000000000001
aF0.085500000000000007
aF0.18920000000000001
aF0.13350000000000001
aF0.20669999999999999
aF0.19850000000000001
aF0.1517
aF0.2175
aF0.13170000000000001
aF0.23749999999999999
aF0.22420000000000001
aF0.25750000000000001
aF0.15670000000000001
aF0.18149999999999999
aF0.25419999999999998
aF0.096500000000000002
aF0.3417
aF0.018499999999999999
aF0.44169999999999998
aF0.014500000000000001
aF0.49170000000000003
aF0.0785
aF0.42170000000000002
aF0.030499999999999999
aF0.62170000000000003
aF-0.036499999999999998
aF0.63919999999999999
aF-0.021499999999999998
aF0.40670000000000001
aF-0.0025000000000000001
aF0.40920000000000001
aF0.0115
aF0.40920000000000001
aF0.0035000000000000001
aF0.41670000000000001
aF-0.017500000000000002
aF0.4642
aF-0.0054999999999999997
aF0.33169999999999999
aF0.0385
aF0.14169999999999999
aF0.049500000000000002
aF0.1792
aF0.032500000000000001
aF0.25669999999999998
aF0.087499999999999994
aF-0.0533
aF0.057500000000000002
aF-0.1208
aF-0.0395
aF0.081699999999999995
aF0.014500000000000001
aF-0.17580000000000001
aF0.0625
aF-0.17080000000000001
aF0.018499999999999999
aF0.046699999999999998
aF-0.044499999999999998
aF-0.078299999999999995
aF-0.098500000000000004
aF-0.063299999999999995
aF-0.11749999999999999
aF-0.035799999999999998
aF-0.19450000000000001
aF-0.0683
aF-0.26450000000000001
aF-0.088300000000000003
aF-0.2495
aF-0.18079999999999999
aF-0.30149999999999999
aF-0.0533
aF-0.3745
aF-0.033300000000000003
aF-0.34449999999999997
aF-0.25080000000000002
aF-0.31950000000000001
aF-0.1283
aF-0.31950000000000001
aF-0.0083000000000000001
aF-0.34150000000000003
aF-0.0683
aF-0.3745
aF0.076700000000000004
aF-0.26750000000000002
aF-0.035799999999999998
aF-0.2205
aF-0.043299999999999998
aF-0.33150000000000002
aF0.2442
aF-0.36449999999999999
aF0.069199999999999998
aF-0.39550000000000002
aF0.0117
aF-0.4325
aF0.051700000000000003
aF-0.38550000000000001
aF-0.17829999999999999
aF-0.35849999999999999
aF-0.1008
aF-0.26450000000000001
aF-0.14330000000000001
aF-0.2165
aF-0.23830000000000001
aF-0.27350000000000002
aF-0.013299999999999999
aF-0.20150000000000001
aF-0.1033
aF-0.086499999999999994
aF-0.23830000000000001
aF-0.13350000000000001
aF0.036700000000000003
aF-0.20050000000000001
aF0.0567
aF-0.16450000000000001
aF-0.13830000000000001
aF-0.1575
aF-0.0057999999999999996
aF-0.2145
aF0.024199999999999999
aF-0.26050000000000001
aF-0.078299999999999995
aF-0.2505
aF0.019199999999999998
aF-0.20050000000000001
aF-0.00080000000000000004
aF-0.27550000000000002
aF0.1167
aF-0.30249999999999999
aF0.18920000000000001
aF-0.16250000000000001
aF-0.058299999999999998
aF-0.1545
aF0.094200000000000006
aF-0.1905
aF0.084199999999999997
aF-0.17849999999999999
aF-0.065799999999999997
aF-0.1525
aF0.14419999999999999
aF-0.0275
aF-0.1183
aF-0.0545
aF-0.028299999999999999
aF-0.060499999999999998
aF0.076700000000000004
aF0.0935
aF-0.31330000000000002
aF0.068500000000000005
aF-0.14080000000000001
aF0.0115
aF-0.1208
aF0.047500000000000001
aF-0.30830000000000002
aF0.1245
aF-0.23580000000000001
aF0.1595
aF-0.31580000000000003
aF-0.025499999999999998
aF-0.028299999999999999
aF-0.080500000000000002
aF0.031699999999999999
aF0.0054999999999999997
aF-0.073300000000000004
aF-0.0395
aF0.17419999999999999
aF-0.14849999999999999
aF0.2417
aF-0.2485
aF0.47420000000000001
aF-0.18149999999999999
aF0.47420000000000001
aF-0.16650000000000001
aF0.36670000000000003
aF-0.33750000000000002
aF0.68169999999999997
aF-0.3695
aF0.51170000000000004
aF-0.3785
aF0.42170000000000002
aF-0.52949999999999997
aF0.5917
aF-0.70950000000000002
aF0.47920000000000001
aF-0.73750000000000004
aF0.4042
aF-0.67549999999999999
aF0.38419999999999999
aF-0.8095
aF0.47920000000000001
aF-0.97750000000000004
aF0.40670000000000001
aF-1.0365
aF0.3367
aF-1.0275000000000001
aF0.41420000000000001
aF-0.99950000000000006
aF0.2142
aF-1.0315000000000001
aF0.22670000000000001
aF-0.9335
aF0.17169999999999999
aF-0.79949999999999999
aF0.0167
aF-0.77849999999999997
aF0.0567
aF-0.66149999999999998
aF-0.18329999999999999
aF-0.58050000000000002
aF-0.075800000000000006
aF-0.54149999999999998
aF0.0041999999999999997
aF-0.47749999999999998
aF-0.37080000000000002
aF-0.47549999999999998
aF-0.30330000000000001
aF-0.34749999999999998
aF-0.37830000000000003
aF-0.28949999999999998
aF-0.37080000000000002
aF-0.31950000000000001
aF-0.24079999999999999
aF-0.25750000000000001
aF-0.45329999999999998
aF-0.2515
aF-0.25580000000000003
aF-0.22850000000000001
aF-0.1908
aF-0.18149999999999999
aF-0.33829999999999999
aF-0.17949999999999999
aF-0.25580000000000003
aF-0.1585
aF-0.33829999999999999
aF-0.17449999999999999
aF-0.32079999999999997
aF-0.087499999999999994
aF-0.37330000000000002
aF0.10050000000000001
aF-0.50329999999999997
aF0.1875
aF-0.37830000000000003
aF0.20649999999999999
aF-0.50080000000000002
aF0.1245
aF-0.45829999999999999
aF0.0235
aF-0.34329999999999999
aF-0.016500000000000001
aF-0.4783
aF-0.055500000000000001
aF-0.37330000000000002
aF-0.047500000000000001
aF-0.36830000000000002
aF-0.096500000000000002
aF-0.39329999999999998
aF-0.24049999999999999
aF-0.23080000000000001
aF-0.28749999999999998
aF-0.44829999999999998
aF-0.3125
aF-0.49330000000000002
aF-0.38450000000000001
aF-0.31580000000000003
aF-0.38850000000000001
aF-0.59830000000000005
aF-0.4365
aF-0.61580000000000001
aF-0.51949999999999996
aF-0.44829999999999998
aF-0.52549999999999997
aF-0.60829999999999995
aF-0.52449999999999997
aF-0.55579999999999996
aF-0.51949999999999996
aF-0.45079999999999998
aF-0.52849999999999997
aF-0.4733
aF-0.52349999999999997
aF-0.48830000000000001
aF-0.44850000000000001
aF-0.60329999999999995
aF-0.41049999999999998
aF-0.50829999999999997
aF-0.42849999999999999
aF-0.36330000000000001
aF-0.40550000000000003
aF-0.37580000000000002
aF-0.32750000000000001
aF-0.35580000000000001
aF-0.26550000000000001
aF-0.30330000000000001
aF-0.2495
aF-0.30080000000000001
aF-0.19750000000000001
aF-0.33829999999999999
aF-0.1255
aF-0.36330000000000001
aF-0.044499999999999998
aF-0.42830000000000001
aF0.060499999999999998
aF-0.51329999999999998
aF0.18149999999999999
aF-0.44829999999999998
aF0.33250000000000002
aF-0.43830000000000002
aF0.4405
aF-0.44829999999999998
aF0.46850000000000003
aF-0.32579999999999998
aF0.50849999999999995
aF-0.30330000000000001
aF0.57350000000000001
aF-0.3533
aF0.5585
aF-0.31080000000000002
aF0.47849999999999998
aF-0.31080000000000002
aF0.45650000000000002
aF-0.4733
aF0.41149999999999998
aF-0.45329999999999998
aF0.29949999999999999
aF-0.37080000000000002
aF0.26850000000000002
aF-0.50329999999999997
aF0.26850000000000002
aF-0.5383
aF0.26950000000000002
aF-0.51829999999999998
aF0.23250000000000001
aF-0.60329999999999995
aF0.13150000000000001
aF-0.50329999999999997
aF0.094500000000000001
aF-0.48330000000000001
aF0.026499999999999999
aF-0.4108
aF-0.040500000000000001
aF-0.30080000000000001
aF-0.0395
aF-0.2883
aF-0.0395
aF-0.14080000000000001
aF-0.021499999999999998
aF-0.095799999999999996
aF-0.029499999999999998
aF-0.023300000000000001
aF0.0054999999999999997
aF0.044200000000000003
aF0.082500000000000004
aF0.061699999999999998
aF0.1285
aF0.16669999999999999
aF0.19450000000000001
aF0.12920000000000001
aF0.1865
aF0.26169999999999999
aF0.19350000000000001
aF0.32669999999999999
aF0.27650000000000002
aF0.089200000000000002
aF0.26450000000000001
aF0.14169999999999999
aF0.24149999999999999
aF0.1142
aF0.20849999999999999
aF0.034200000000000001
aF0.16450000000000001
aF0.064199999999999993
aF0.19850000000000001
aF-0.080799999999999997
aF0.20649999999999999
aF0.031699999999999999
aF0.26350000000000001
aF0.1042
aF0.29349999999999998
aF0.1217
aF0.23350000000000001
aF0.29170000000000001
aF0.17449999999999999
aF0.32169999999999999
aF0.17349999999999999
aF0.25669999999999998
aF0.22650000000000001
aF0.16919999999999999
aF0.11650000000000001
aF0.40670000000000001
aF0.032500000000000001
aF0.38169999999999998
aF0.076499999999999999
aF0.13420000000000001
aF0.026499999999999999
aF0.4667
aF0.085500000000000007
aF0.30669999999999997
aF0.13850000000000001
aF0.15670000000000001
aF0.1275
aF0.37419999999999998
aF0.20749999999999999
aF0.031699999999999999
aF0.17749999999999999
aF0.099199999999999997
aF0.19850000000000001
aF0.19170000000000001
aF0.34749999999999998
aF-0.1158
aF0.38250000000000001
aF-0.033300000000000003
aF0.32650000000000001
aF0.0117
aF0.28050000000000003
aF-0.0033
aF0.39650000000000002
aF-0.1883
aF0.4395
aF-0.17080000000000001
aF0.30549999999999999
aF0.1492
aF0.32550000000000001
aF-0.15329999999999999
aF0.32350000000000001
aF-0.2208
aF0.22550000000000001
aF-0.013299999999999999
aF0.20949999999999999
aF-0.36080000000000001
aF0.20050000000000001
aF-0.42080000000000001
aF0.1275
aF-0.26829999999999998
aF-0.052499999999999998
aF-0.30830000000000002
aF-0.17949999999999999
aF-0.4133
aF-0.2155
aF-0.36830000000000002
aF-0.2465
aF-0.26329999999999998
aF-0.29949999999999999
aF-0.32579999999999998
aF-0.35549999999999998
aF-0.2833
aF-0.34449999999999997
aF-0.20830000000000001
aF-0.3085
aF-0.1983
aF-0.2495
aF-0.24329999999999999
aF-0.1525
aF-0.24329999999999999
aF-0.1145
aF-0.1308
aF-0.10349999999999999
aF-0.2283
aF-0.17849999999999999
aF-0.1583
aF-0.17549999999999999
aF-0.14580000000000001
aF-0.049500000000000002
aF-0.39079999999999998
aF-0.0465
aF-0.26829999999999998
aF-0.060499999999999998
aF-0.38329999999999997
aF-0.1055
aF-0.4733
aF-0.14849999999999999
aF-0.30830000000000002
aF-0.069500000000000006
aF-0.54079999999999995
aF-0.088499999999999995
aF-0.39329999999999998
aF-0.079500000000000001
aF-0.2908
aF-0.044499999999999998
aF-0.44579999999999997
aF-0.15049999999999999
aF-0.1608
aF-0.087499999999999994
aF-0.31330000000000002
aF0.11749999999999999
aF-0.65080000000000005
aF0.1845
aF-0.38329999999999997
aF0.23449999999999999
aF-0.44829999999999998
aF0.3125
aF-0.67579999999999996
aF0.34350000000000003
aF-0.48080000000000001
aF0.41649999999999998
aF-0.50580000000000003
aF0.47949999999999998
aF-0.58079999999999998
aF0.40849999999999997
aF-0.1883
aF0.36349999999999999
aF-0.14080000000000001
aF0.26950000000000002
aF-0.1933
aF0.079500000000000001
aF0.1542
aF0.056500000000000002
aF0.091700000000000004
aF-0.0035000000000000001
aF0.26419999999999999
aF-0.029499999999999998
aF0.36919999999999997
aF-0.032500000000000001
aF0.20669999999999999
aF-0.21149999999999999
aF0.65669999999999995
aF-0.1885
aF0.45169999999999999
aF-0.17949999999999999
aF0.37669999999999998
aF-0.3165
aF0.85919999999999996
aF-0.2155
aF0.44419999999999998
aF-0.20050000000000001
aF0.58420000000000005
aF-0.2475
aF0.91920000000000002
aF-0.1865
aF0.50919999999999999
aF-0.14949999999999999
aF0.49669999999999997
aF-0.049500000000000002
aF0.48170000000000002
aF-0.036499999999999998
aF0.44919999999999999
aF-0.017500000000000002
aF0.44169999999999998
aF0.083500000000000005
aF0.43169999999999997
aF0.14050000000000001
aF0.60419999999999996
aF0.20549999999999999
aF0.48920000000000002
aF0.24349999999999999
aF0.5292
aF0.33450000000000002
aF0.53669999999999995
aF0.39150000000000001
aF0.4667
aF0.3805
aF0.62919999999999998
aF0.41449999999999998
aF0.59670000000000001
aF0.41249999999999998
aF0.66420000000000001
aF0.44450000000000001
aF0.61419999999999997
aF0.39450000000000002
aF0.62670000000000003
aF0.29949999999999999
aF0.81669999999999998
aF0.36549999999999999
aF0.61670000000000003
aF0.36049999999999999
aF0.67669999999999997
aF0.30349999999999999
aF0.84419999999999995
aF0.29049999999999998
aF0.85419999999999996
aF0.36249999999999999
aF0.82669999999999999
aF0.47949999999999998
aF0.7117
aF0.39150000000000001
aF1.0417000000000001
aF0.4415
aF0.90920000000000001
aF0.58050000000000002
aF0.68669999999999998
aF0.48449999999999999
aF1.0591999999999999
aF0.47049999999999997
aF0.72170000000000001
aF0.46750000000000003
aF0.58169999999999999
aF0.46250000000000002
aF0.76170000000000004
aF0.50949999999999995
aF0.40920000000000001
aF0.41649999999999998
aF0.47170000000000001
aF0.44450000000000001
aF0.38169999999999998
aF0.51949999999999996
aF0.1817
aF0.47949999999999998
aF0.23169999999999999
aF0.41949999999999998
aF0.1167
aF0.35049999999999998
aF0.1867
aF0.35249999999999998
aF0.1167
aF0.29549999999999998
aF0.091700000000000004
aF0.22850000000000001
aF0.18920000000000001
aF0.28449999999999998
aF0.026700000000000002
aF0.29549999999999998
aF0.16919999999999999
aF0.2535
aF0.31169999999999998
aF0.23949999999999999
aF0.20169999999999999
aF0.2465
aF0.31669999999999998
aF0.23449999999999999
aF0.44669999999999999
aF0.1525
aF0.44669999999999999
aF0.080500000000000002
aF0.49419999999999997
aF0.098500000000000004
aF0.44169999999999998
aF0.1525
aF0.2792
aF0.13350000000000001
aF0.26419999999999999
aF0.1255
aF0.20419999999999999
aF0.14649999999999999
aF0.1867
aF0.13650000000000001
aF0.21920000000000001
aF0.1195
aF0.19170000000000001
aF0.1115
aF0.30669999999999997
aF0.23449999999999999
aF0.1217
aF0.32150000000000001
aF-0.050799999999999998
aF0.28849999999999998
aF0.059200000000000003
aF0.34350000000000003
aF-0.1133
aF0.3155
aF0.1142
aF0.33950000000000002
aF0.15920000000000001
aF0.45950000000000002
aF-0.23330000000000001
aF0.3695
aF0.16420000000000001
aF0.38750000000000001
aF0.11169999999999999
aF0.47149999999999997
aF-0.20080000000000001
aF0.42449999999999999
aF0.1467
aF0.47149999999999997
aF0.094200000000000006
aF0.45850000000000002
aF0.16919999999999999
aF0.45650000000000002
aF0.20669999999999999
aF0.39850000000000002
aF0.061699999999999998
aF0.2195
aF0.2492
aF0.20949999999999999
aF0.066699999999999995
aF0.18149999999999999
aF0.031699999999999999
aF0.053499999999999999
aF0.23169999999999999
aF-0.025499999999999998
aF0.099199999999999997
aF-0.072499999999999995
aF0.15670000000000001
aF-0.1095
aF0.31669999999999998
aF-0.2455
aF0.44669999999999999
aF-0.38150000000000001
aF0.46920000000000001
aF-0.46250000000000002
aF0.50170000000000003
aF-0.50549999999999995
aF0.51919999999999999
aF-0.4975
aF0.35420000000000001
aF-0.51749999999999996
aF0.50170000000000003
aF-0.4415
aF0.40920000000000001
aF-0.42149999999999999
aF0.34920000000000001
aF-0.47249999999999998
aF0.49170000000000003
aF-0.34449999999999997
aF0.094200000000000006
aF-0.2465
aF0.1017
aF-0.20649999999999999
aF0.22170000000000001
aF-0.17949999999999999
aF-0.0258
aF-0.21149999999999999
aF0.059200000000000003
aF-0.1245
aF-0.2233
aF-0.1275
aF-0.36580000000000001
aF-0.24049999999999999
aF-0.24329999999999999
aF-0.25750000000000001
aF-0.4733
aF-0.30649999999999999
aF-0.44330000000000003
aF-0.32650000000000001
aF-0.46829999999999999
aF-0.27950000000000003
aF-0.65580000000000005
aF-0.2505
aF-0.62829999999999997
aF-0.27750000000000002
aF-0.61080000000000001
aF-0.35449999999999998
aF-0.71830000000000005
aF-0.34949999999999998
aF-0.91830000000000001
aF-0.33550000000000002
aF-0.80579999999999996
aF-0.33250000000000002
aF-0.76080000000000003
aF-0.35749999999999998
aF-0.90080000000000005
aF-0.47049999999999997
aF-0.65580000000000005
aF-0.45850000000000002
aF-0.75829999999999997
aF-0.41749999999999998
aF-0.80330000000000001
aF-0.44850000000000001
aF-0.38579999999999998
aF-0.36549999999999999
aF-0.44829999999999998
aF-0.27950000000000003
aF-0.45079999999999998
aF-0.22850000000000001
aF-0.31080000000000002
aF-0.14849999999999999
aF-0.4083
aF-0.065500000000000003
aF-0.30830000000000002
aF0.089499999999999996
aF-0.34329999999999999
aF0.21249999999999999
aF-0.4708
aF0.23150000000000001
aF-0.49080000000000001
aF0.19750000000000001
aF-0.52580000000000005
aF0.13250000000000001
aF-0.49080000000000001
aF0.094500000000000001
aF-0.54330000000000001
aF0.066500000000000004
aF-0.58579999999999999
aF-0.0315
aF-0.38829999999999998
aF-0.1265
aF-0.27829999999999999
aF-0.16950000000000001
aF-0.36830000000000002
aF-0.22850000000000001
aF-0.24329999999999999
aF-0.2465
aF-0.1358
aF-0.17549999999999999
aF-0.24579999999999999
aF-0.11749999999999999
aF-0.20330000000000001
aF-0.13650000000000001
aF-0.043299999999999998
aF-0.17649999999999999
aF0.019199999999999998
aF-0.15049999999999999
aF0.051700000000000003
aF-0.085500000000000007
aF0.1217
aF-0.096500000000000002
aF0.2717
aF-0.1245
aF0.39419999999999999
aF-0.1525
aF0.51919999999999999
aF-0.20749999999999999
aF0.60419999999999996
aF-0.28849999999999998
aF0.59670000000000001
aF-0.41849999999999998
aF0.73670000000000002
aF-0.42249999999999999
aF0.70920000000000005
aF-0.34350000000000003
aF0.51919999999999999
aF-0.38750000000000001
aF0.66169999999999995
aF-0.38550000000000001
aF0.62919999999999998
aF-0.30549999999999999
aF0.4667
aF-0.26650000000000001
aF0.54420000000000002
aF-0.3165
aF0.58420000000000005
aF-0.38350000000000001
aF0.59919999999999995
aF-0.28549999999999998
aF0.49170000000000003
aF-0.16550000000000001
aF0.43919999999999998
aF-0.1825
aF0.55669999999999997
aF-0.1565
aF0.38919999999999999
aF-0.081500000000000003
aF0.22420000000000001
aF-0.069500000000000006
aF0.18920000000000001
aF-0.1075
aF-0.0033
aF-0.14849999999999999
aF-0.090800000000000006
aF-0.1295
aF-0.17829999999999999
aF-0.14649999999999999
aF-0.42830000000000001
aF-0.30049999999999999
aF-0.52080000000000004
aF-0.46750000000000003
aF-0.4783
aF-0.52949999999999997
aF-0.55830000000000002
aF-0.54449999999999998
aF-0.62329999999999997
aF-0.5615
aF-0.62829999999999997
aF-0.5675
aF-0.53580000000000005
aF-0.47949999999999998
aF-0.54579999999999995
aF-0.3715
aF-0.65580000000000005
aF-0.40350000000000003
aF-0.43580000000000002
aF-0.30549999999999999
aF-0.56579999999999997
aF-0.041500000000000002
aF-0.94579999999999997
aF0.0015
aF-0.63329999999999997
aF-0.037499999999999999
aF-0.5383
aF0.030499999999999999
aF-0.79330000000000001
aF0.1235
aF-0.5958
aF0.21049999999999999
aF-0.56579999999999997
aF0.23050000000000001
aF-0.54079999999999995
aF0.27350000000000002
aF-0.39329999999999998
aF0.3115
aF-0.31330000000000002
aF0.28749999999999998
aF-0.2908
aF0.29649999999999999
aF-0.3508
aF0.3125
aF-0.16830000000000001
aF0.33150000000000002
aF-0.088300000000000003
aF0.27250000000000002
aF-0.15579999999999999
aF0.17249999999999999
aF-0.00080000000000000004
aF0.26550000000000001
aF-0.20080000000000001
aF0.33150000000000002
aF-0.25080000000000002
aF0.17749999999999999
aF0.17169999999999999
aF0.11749999999999999
aF-0.058299999999999998
aF0.14749999999999999
aF-0.29580000000000001
aF0.088499999999999995
aF-0.058299999999999998
aF0.065500000000000003
aF-0.26329999999999998
aF0.1075
aF-0.39829999999999999
aF0.26750000000000002
aF-0.46329999999999999
aF0.39750000000000002
aF-0.65080000000000005
aF0.32450000000000001
aF-0.4733
aF0.32950000000000002
aF-0.46829999999999999
aF0.42249999999999999
aF-0.53580000000000005
aF0.36149999999999999
aF-0.25829999999999997
aF0.25650000000000001
aF-0.083299999999999999
aF0.2545
aF0.021700000000000001
aF0.30149999999999999
aF0.1842
aF0.3165
aF0.14419999999999999
aF0.28749999999999998
aF0.1192
aF0.34649999999999997
aF0.1017
aF0.50949999999999995
aF-0.13830000000000001
aF0.58950000000000002
aF-0.29330000000000001
aF0.5585
aF-0.18579999999999999
aF0.59850000000000003
aF-0.21079999999999999
aF0.64249999999999996
aF-0.21579999999999999
aF0.55449999999999999
aF-0.048300000000000003
aF0.44750000000000001
aF-0.0533
aF0.39350000000000002
aF-0.058299999999999998
aF0.29849999999999999
aF0.064199999999999993
aF0.1135
aF0.036700000000000003
aF-0.087499999999999994
aF-0.0033
aF-0.19450000000000001
aF0.014200000000000001
aF-0.29349999999999998
aF-0.0083000000000000001
aF-0.46650000000000003
aF-0.013299999999999999
aF-0.62250000000000005
aF-0.0183
aF-0.6905
aF-0.00080000000000000004
aF-0.65949999999999998
aF-0.12330000000000001
aF-0.63249999999999995
aF-0.1958
aF-0.72450000000000003
aF0.1167
aF-0.73650000000000004
aF0.16919999999999999
aF-0.60350000000000004
aF-0.055800000000000002
aF-0.51549999999999996
aF0.019199999999999998
aF-0.45750000000000002
aF0.10920000000000001
aF-0.31950000000000001
aF-0.078299999999999995
aF-0.22650000000000001
aF-0.095799999999999996
aF-0.26750000000000002
aF0.12670000000000001
aF-0.23949999999999999
aF0.046699999999999998
aF-0.0465
aF-0.1133
aF0.066500000000000004
aF0.1492
aF0.096500000000000002
aF0.1167
aF0.057500000000000002
aF0.086699999999999999
aF0.075499999999999998
aF0.30170000000000002
aF0.23649999999999999
aF0.069199999999999998
aF0.26650000000000001
aF0.16170000000000001
aF0.17949999999999999
aF0.45669999999999999
aF0.16950000000000001
aF0.25669999999999998
aF0.1105
aF0.2092
aF-0.0085000000000000006
aF0.26419999999999999
aF-0.1285
aF0.25169999999999998
aF-0.17050000000000001
aF0.1792
aF-0.2225
aF-0.0458
aF-0.48949999999999999
aF0.0292
aF-0.6915
aF-0.055800000000000002
aF-0.65449999999999997
aF-0.30830000000000002
aF-0.61550000000000005
aF-0.2233
aF-0.6895
aF-0.1933
aF-0.84750000000000003
aF-0.10829999999999999
aF-0.87549999999999994
aF-0.1283
aF-0.83350000000000002
aF-0.31330000000000002
aF-0.94550000000000001
aF-0.080799999999999997
aF-0.96950000000000003
aF-0.095799999999999996
aF-0.86950000000000005
aF-0.24829999999999999
aF-0.86350000000000005
aF-0.12330000000000001
aF-0.89649999999999996
aF-0.20080000000000001
aF-0.85950000000000004
aF-0.20330000000000001
aF-0.6865
aF-0.15329999999999999
aF-0.5615
aF-0.1958
aF-0.60850000000000004
aF-0.088300000000000003
aF-0.59650000000000003
aF-0.055800000000000002
aF-0.3735
aF-0.24329999999999999
aF-0.1545
aF-0.37080000000000002
aF-0.11550000000000001
aF-0.35580000000000001
aF-0.077499999999999999
aF-0.46079999999999999
aF-0.00050000000000000001
aF-0.54330000000000001
aF0.022499999999999999
aF-0.57079999999999997
aF0.012500000000000001
aF-0.69830000000000003
aF-0.00050000000000000001
aF-0.73829999999999996
aF-0.0044999999999999997
aF-0.76329999999999998
aF-0.082500000000000004
aF-0.94330000000000003
aF-0.26150000000000001
aF-0.9758
aF-0.3705
aF-0.83579999999999999
aF-0.32250000000000001
aF-0.80330000000000001
aF-0.20949999999999999
aF-0.93330000000000002
aF-0.20250000000000001
aF-0.81830000000000003
aF-0.26750000000000002
aF-0.54330000000000001
aF-0.1615
aF-0.71079999999999999
aF-0.035499999999999997
aF-0.78580000000000005
aF-0.066500000000000004
aF-0.4158
aF-0.0395
aF-0.37330000000000002
aF0.066500000000000004
aF-0.40079999999999999
aF0.14949999999999999
aF-0.25330000000000003
aF0.1875
aF-0.23080000000000001
aF0.2445
aF-0.15079999999999999
aF0.41949999999999998
aF-0.1908
aF0.44350000000000001
aF0.0091999999999999998
aF0.33150000000000002
aF0.22170000000000001
aF0.40550000000000003
aF0.041700000000000001
aF0.51249999999999996
aF0.16669999999999999
aF0.47149999999999997
aF0.38919999999999999
aF0.38450000000000001
aF0.36670000000000003
aF0.35249999999999998
aF0.48670000000000002
aF0.47149999999999997
aF0.43669999999999998
aF0.5655
aF0.37169999999999997
aF0.48649999999999999
aF0.57669999999999999
aF0.44550000000000001
aF0.56920000000000004
aF0.42849999999999999
aF0.55420000000000003
aF0.29549999999999998
aF0.72419999999999995
aF0.19850000000000001
aF0.74419999999999997
aF0.22750000000000001
aF0.78920000000000001
aF0.24049999999999999
aF0.93420000000000003
aF0.1605
aF0.9617
aF0.097500000000000003
aF0.85919999999999996
aF0.14249999999999999
aF0.9042
aF0.2485
aF0.91669999999999996
aF0.29549999999999998
aF0.81420000000000003
aF0.28949999999999998
aF0.80669999999999997
aF0.26250000000000001
aF0.89170000000000005
aF0.2225
aF0.92669999999999997
aF0.2495
aF0.72919999999999996
aF0.26650000000000001
aF0.68420000000000003
aF0.21049999999999999
aF0.86919999999999997
aF0.18149999999999999
aF0.7167
aF0.13550000000000001
aF0.61419999999999997
aF0.099500000000000005
aF0.66920000000000002
aF0.1295
aF0.4617
aF0.043499999999999997
aF0.52170000000000005
aF-0.050500000000000003
aF0.51170000000000004
aF-0.024500000000000001
aF0.1767
aF-0.0155
aF0.20669999999999999
aF0.059499999999999997
aF0.21920000000000001
aF0.17949999999999999
aF0.036700000000000003
aF0.20050000000000001
aF0.099199999999999997
aF0.13450000000000001
aF0.20169999999999999
aF0.0385
aF0.29920000000000002
aF0.0785
aF0.29170000000000001
aF0.17249999999999999
aF0.31919999999999998
aF0.1215
aF0.49419999999999997
aF0.0025000000000000001
aF0.56169999999999998
aF0.0054999999999999997
aF0.45169999999999999
aF0.089499999999999996
aF0.35170000000000001
aF0.086499999999999994
aF0.47170000000000001
aF0.11749999999999999
aF0.35170000000000001
aF0.27750000000000002
aF-0.1133
aF0.25750000000000001
aF-0.10829999999999999
aF0.1075
aF-0.1258
aF0.10249999999999999
aF-0.52829999999999999
aF0.1295
aF-0.54830000000000001
aF0.11550000000000001
aF-0.62829999999999997
aF-0.018499999999999999
aF-0.80330000000000001
aF-0.1305
aF-0.81330000000000002
aF-0.1205
aF-0.89329999999999998
aF-0.18149999999999999
aF-0.80830000000000002
aF-0.16650000000000001
aF-0.98080000000000001
aF-0.1085
aF-1.0333000000000001
aF-0.20449999999999999
aF-0.57330000000000003
aF-0.27950000000000003
aF-0.56830000000000003
aF-0.36549999999999999
aF-0.43830000000000002
aF-0.34549999999999997
aF-0.1333
aF-0.17050000000000001
aF-0.26079999999999998
aF-0.27850000000000003
aF0.2767
aF-0.39250000000000002
aF0.55420000000000003
aF-0.26850000000000002
aF0.20669999999999999
aF-0.20949999999999999
aF0.49419999999999997
aF-0.1835
aF0.56169999999999998
aF-0.21149999999999999
aF0.51170000000000004
aF-0.2185
aF0.63919999999999999
aF-0.1115
aF0.35920000000000002
aF-0.13950000000000001
aF0.52669999999999995
aF-0.083500000000000005
aF0.61670000000000003
aF0.1065
aF0.41170000000000001
aF0.085500000000000007
aF0.72919999999999996
aF0.016500000000000001
aF0.67920000000000003
aF0.1515
aF0.26419999999999999
aF0.3075
aF0.35420000000000001
aF0.32850000000000001
aF0.45419999999999999
aF0.2525
aF0.3392
aF0.16950000000000001
aF0.43169999999999997
aF0.1545
aF0.4642
aF0.1285
aF0.26169999999999999
aF0.025499999999999998
aF0.35670000000000002
aF-0.018499999999999999
aF0.39169999999999999
aF-0.0064999999999999997
aF0.14419999999999999
aF-0.1115
aF0.1767
aF-0.20349999999999999
aF0.23669999999999999
aF-0.1845
aF0.25169999999999998
aF-0.092499999999999999
aF0.31419999999999998
aF0.0195
aF0.081699999999999995
aF-0.048500000000000001
aF0.2167
aF-0.077499999999999999
aF0.35920000000000002
aF0.036499999999999998
aF0.13170000000000001
aF0.0385
aF0.31419999999999998
aF0.067500000000000004
aF0.30420000000000003
aF0.14649999999999999
aF0.1517
aF0.14549999999999999
aF0.35170000000000001
aF0.13150000000000001
aF0.22670000000000001
aF-0.035499999999999997
aF0.3342
aF-0.1515
aF0.44919999999999999
aF-0.1285
aF0.1217
aF-0.28449999999999998
aF0.25919999999999999
aF-0.41449999999999998
aF0.23669999999999999
aF-0.41149999999999998
aF-0.0057999999999999996
aF-0.44450000000000001
aF0.16669999999999999
aF-0.4405
aF0.13170000000000001
aF-0.45950000000000002
aF0.17169999999999999
aF-0.43149999999999999
aF0.36420000000000002
aF-0.32850000000000001
aF0.30420000000000003
aF-0.34849999999999998
aF0.39169999999999999
aF-0.3755
aF0.37419999999999998
aF-0.32650000000000001
aF0.30420000000000003
aF-0.26150000000000001
aF0.4042
aF-0.16750000000000001
aF0.35670000000000002
aF-0.050500000000000003
aF0.2442
aF0.065500000000000003
aF0.15920000000000001
aF0.085500000000000007
aF0.21920000000000001
aF0.069500000000000006
aF0.16170000000000001
aF0.15049999999999999
aF-0.1158
aF0.22450000000000001
aF-0.098299999999999998
aF0.23449999999999999
aF-0.1633
aF0.14050000000000001
aF-0.25580000000000003
aF0.043499999999999997
aF-0.14580000000000001
aF0.1075
aF-0.3483
aF0.14749999999999999
aF-0.39829999999999999
aF0.1045
aF-0.18579999999999999
aF0.079500000000000001
aF-0.26579999999999998
aF0.068500000000000005
aF-0.36580000000000001
aF0.0155
aF-0.30330000000000001
aF-0.052499999999999998
aF-0.21329999999999999
aF-0.012500000000000001
aF-0.17829999999999999
aF0.1125
aF-0.23330000000000001
aF0.14050000000000001
aF-0.1883
aF0.1125
aF-0.10829999999999999
aF0.1615
aF-0.058299999999999998
aF0.26250000000000001
aF0.096699999999999994
aF0.35549999999999998
aF0.1792
aF0.3795
aF0.32669999999999999
aF0.4355
aF0.46920000000000001
aF0.51149999999999995
aF0.54420000000000002
aF0.49149999999999999
aF0.7167
aF0.52049999999999996
aF0.65169999999999995
aF0.61250000000000004
aF0.54169999999999996
aF0.5655
aF0.73670000000000002
aF0.51249999999999996
aF0.56920000000000004
aF0.50349999999999995
aF0.33169999999999999
aF0.46150000000000002
aF0.53169999999999995
aF0.51049999999999995
aF0.33169999999999999
aF0.4385
aF0.26919999999999999
aF0.3175
aF0.36919999999999997
aF0.39250000000000002
aF-0.038300000000000001
aF0.42749999999999999
aF-0.1183
aF0.46350000000000002
aF-0.18079999999999999
aF0.46150000000000002
aF-0.30080000000000001
aF0.35549999999999998
aF-0.058299999999999998
aF0.41449999999999998
aF-0.3483
aF0.41049999999999998
aF-0.48080000000000001
aF0.2505
aF-0.1883
aF0.17649999999999999
aF-0.31830000000000003
aF0.066500000000000004
aF-0.29330000000000001
aF0.030499999999999999
aF-0.3458
aF0.065500000000000003
aF-0.57579999999999998
aF0.0015
aF-0.35830000000000001
aF0.012500000000000001
aF-0.49580000000000002
aF-0.0155
aF-0.62580000000000002
aF-0.072499999999999995
aF-0.57830000000000004
aF-0.0315
aF-0.7833
aF-0.0235
aF-0.63329999999999997
aF0.047500000000000001
aF-0.68079999999999996
aF0.10050000000000001
aF-0.84079999999999999
aF0.055500000000000001
aF-0.66579999999999995
aF0.1305
aF-0.86580000000000001
aF0.19350000000000001
aF-0.91830000000000001
aF0.1295
aF-0.64329999999999998
aF0.1075
aF-0.72829999999999995
aF0.086499999999999994
aF-0.64580000000000004
aF0.081500000000000003
aF-0.49080000000000001
aF0.1055
aF-0.55079999999999996
aF0.082500000000000004
aF-0.3458
aF0.1135
aF-0.25080000000000002
aF0.17749999999999999
aF-0.32579999999999998
aF0.22450000000000001
aF-0.4083
aF0.2215
aF-0.4708
aF0.20749999999999999
aF-0.37830000000000003
aF0.28449999999999998
aF-0.56079999999999997
aF0.32650000000000001
aF-0.5958
aF0.30549999999999999
aF-0.4108
aF0.42749999999999999
aF-0.66579999999999995
aF0.48249999999999998
aF-0.61829999999999996
aF0.39750000000000002
aF-0.34329999999999999
aF0.39250000000000002
aF-0.64329999999999998
aF0.35149999999999998
aF-0.57579999999999998
aF0.29049999999999998
aF-0.29330000000000001
aF0.24249999999999999
aF-0.29830000000000001
aF0.24349999999999999
aF-0.2883
aF0.34350000000000003
aF-0.32579999999999998
aF0.3135
aF-0.10829999999999999
aF0.29449999999999998
aF-0.088300000000000003
aF0.35049999999999998
aF-0.1983
aF0.28449999999999998
aF0.1492
aF0.23649999999999999
aF0.069199999999999998
aF0.080500000000000002
aF0.1867
aF-0.061499999999999999
aF0.43419999999999997
aF-0.0115
aF0.0117
aF-0.1195
aF0.19170000000000001
aF-0.17949999999999999
aF0.16170000000000001
aF-0.11849999999999999
aF-0.24079999999999999
aF-0.20649999999999999
aF0.15670000000000001
aF-0.1515
aF-0.048300000000000003
aF-0.010500000000000001
aF-0.3533
aF0.048500000000000001
aF0.0167
aF0.20549999999999999
aF-0.17080000000000001
aF0.29749999999999999
aF-0.27329999999999999
aF0.34050000000000002
aF-0.063299999999999995
aF0.47749999999999998
aF-0.16830000000000001
aF0.52049999999999996
aF-0.033300000000000003
aF0.52749999999999997
aF0.1142
aF0.60150000000000003
aF0.049200000000000001
aF0.61650000000000005
aF0.16669999999999999
aF0.58150000000000002
aF0.31169999999999998
aF0.54949999999999999
aF0.36170000000000002
aF0.52849999999999997
aF0.38169999999999998
aF0.51849999999999996
aF0.4042
aF0.49249999999999999
aF0.39419999999999999
aF0.48649999999999999
aF0.36670000000000003
aF0.51849999999999996
aF0.4042
aF0.52949999999999997
aF0.42170000000000002
aF0.48949999999999999
aF0.36670000000000003
aF0.41449999999999998
aF0.37419999999999998
aF0.36549999999999999
aF0.31419999999999998
aF0.33150000000000002
aF0.2117
aF0.26650000000000001
aF0.19670000000000001
aF0.2545
aF0.0167
aF0.20250000000000001
aF-0.040800000000000003
aF0.091499999999999998
aF-0.030800000000000001
aF0.0025000000000000001
aF-0.16830000000000001
aF-0.086499999999999994
aF-0.1308
aF-0.11749999999999999
aF-0.20330000000000001
aF-0.2135
aF-0.20080000000000001
aF-0.36149999999999999
aF-0.0183
aF-0.42249999999999999
aF-0.055800000000000002
aF-0.49249999999999999
aF0.17169999999999999
aF-0.51049999999999995
aF0.35670000000000002
aF-0.52149999999999996
aF0.4617
aF-0.55649999999999999
aF0.79169999999999996
aF-0.47849999999999998
aF0.76419999999999999
aF-0.45850000000000002
aF0.86170000000000002
aF-0.47749999999999998
aF1.1192
aF-0.40550000000000003
aF0.94669999999999999
aF-0.38850000000000001
aF0.99919999999999998
aF-0.3775
aF1.0642
aF-0.3765
aF1.0317000000000001
aF-0.27850000000000003
aF0.93920000000000003
aF-0.16350000000000001
aF0.93169999999999997
aF-0.19650000000000001
aF1.2292000000000001
aF-0.1055
aF1.0467
aF0.0054999999999999997
aF1.0742
aF0.090499999999999997
aF1.2692000000000001
aF0.2545
aF0.9617
aF0.28949999999999998
aF1.1817
aF0.42749999999999999
aF1.0491999999999999
aF0.53749999999999998
aF0.69420000000000004
aF0.35049999999999998
aF1.0491999999999999
aF0.3095
aF0.73419999999999996
aF0.28349999999999997
aF0.45169999999999999
aF0.13550000000000001
aF0.65669999999999995
aF0.048500000000000001
aF0.34920000000000001
aF-0.0545
aF0.22170000000000001
aF-0.082500000000000004
aF0.11169999999999999
aF-0.14949999999999999
aF-0.088300000000000003
aF-0.21149999999999999
aF-0.25330000000000003
aF-0.19450000000000001
aF-0.43080000000000002
aF-0.17849999999999999
aF-0.39079999999999998
aF-0.061499999999999999
aF-0.77329999999999999
aF-0.0275
aF-0.8458
aF-0.0395
aF-0.61329999999999996
aF0.10349999999999999
aF-1.0407999999999999
aF0.1055
aF-0.93579999999999997
aF0.067500000000000004
aF-0.80830000000000002
aF0.1535
aF-1.1308
aF0.1825
aF-1.0608
aF0.073499999999999996
aF-0.84830000000000005
aF-0.1075
aF-0.66830000000000001
aF-0.025499999999999998
aF-0.91080000000000005
aF0.13350000000000001
aF-0.99080000000000001
aF0.1095
aF-0.68579999999999997
aF0.1255
aF-0.9133
aF0.1255
aF-0.84330000000000005
aF0.19650000000000001
aF-0.75080000000000002
aF0.35349999999999998
aF-1.1083000000000001
aF0.34549999999999997
aF-0.85329999999999995
aF0.3785
aF-0.7258
aF0.42249999999999999
aF-0.96830000000000005
aF0.26550000000000001
aF-0.75829999999999997
aF0.16350000000000001
aF-0.68330000000000002
aF0.1865
aF-0.82330000000000003
aF0.1845
aF-0.82330000000000003
aF0.0385
aF-0.79830000000000001
aF-0.17949999999999999
aF-0.84079999999999999
aF-0.30649999999999999
aF-0.90080000000000005
aF-0.33950000000000002
aF-0.95079999999999998
aF-0.38650000000000001
aF-1.1108
aF-0.52549999999999997
aF-1.0583
aF-0.59650000000000003
aF-1.0783
aF-0.59850000000000003
aF-1.2932999999999999
aF-0.6915
aF-1.2033
aF-0.76349999999999996
aF-1.1133
aF-0.72650000000000003
aF-1.1508
aF-0.66649999999999998
aF-1.1583000000000001
aF-0.72350000000000003
aF-1.0883
aF-0.85750000000000004
aF-0.8508
aF-0.79349999999999998
aF-0.92330000000000001
aF-0.71950000000000003
aF-0.82079999999999997
aF-0.77049999999999996
aF-0.52829999999999999
aF-0.67249999999999999
aF-0.82579999999999998
aF-0.5665
aF-0.70579999999999998
aF-0.5585
aF-0.26579999999999998
aF-0.46850000000000003
aF-0.52080000000000004
aF-0.38850000000000001
aF-0.48080000000000001
aF-0.31850000000000001
aF-0.1583
aF-0.24249999999999999
aF-0.26329999999999998
aF-0.24049999999999999
aF-0.1983
aF-0.23749999999999999
aF-0.015800000000000002
aF-0.1845
aF-0.098299999999999998
aF-0.20449999999999999
aF-0.028299999999999999
aF-0.32150000000000001
aF0.25669999999999998
aF-0.34749999999999998
aF0.2092
aF-0.31950000000000001
aF0.17169999999999999
aF-0.36349999999999999
aF0.35170000000000001
aF-0.41449999999999998
aF0.32669999999999999
aF-0.46650000000000003
aF0.37919999999999998
aF-0.44650000000000001
aF0.36919999999999997
aF-0.46250000000000002
aF0.37669999999999998
aF-0.55549999999999999
aF0.62170000000000003
aF-0.50849999999999995
aF0.53169999999999995
aF-0.48149999999999998
aF0.60919999999999996
aF-0.52649999999999997
aF0.82169999999999999
aF-0.48649999999999999
aF0.68920000000000003
aF-0.45250000000000001
aF0.88670000000000004
aF-0.39250000000000002
aF1.0066999999999999
aF-0.3695
aF0.89670000000000005
aF-0.41549999999999998
aF1.0367
aF-0.34549999999999997
aF0.83919999999999995
aF-0.32750000000000001
aF0.73170000000000002
aF-0.39950000000000002
aF0.86670000000000003
aF-0.34749999999999998
aF0.6542
aF-0.2525
aF0.59670000000000001
aF-0.2145
aF0.68420000000000003
aF-0.1895
aF0.54169999999999996
aF-0.16350000000000001
aF0.38919999999999999
aF-0.1595
aF0.43169999999999997
aF-0.14849999999999999
aF0.28670000000000001
aF-0.1045
aF0.046699999999999998
aF-0.081500000000000003
aF0.096699999999999994
aF-0.060499999999999998
aF0.094200000000000006
aF-0.071499999999999994
aF0.1042
aF-0.073499999999999996
aF0.2417
aF0.026499999999999999
aF0.23169999999999999
aF0.089499999999999996
aF0.36170000000000002
aF0.060499999999999998
aF0.54169999999999996
aF-0.0115
aF0.60919999999999996
aF-0.0275
aF0.58169999999999999
aF0.0054999999999999997
aF0.48920000000000002
aF-0.056500000000000002
aF0.62919999999999998
aF-0.058500000000000003
aF0.53169999999999995
aF0.0064999999999999997
aF0.2742
aF-0.066500000000000004
aF0.42670000000000002
aF-0.19350000000000001
aF0.4617
aF-0.33450000000000002
aF0.60170000000000001
aF-0.38350000000000001
aF0.67669999999999997
aF-0.4405
aF0.59919999999999995
aF-0.6875
aF0.93669999999999998
aF-0.84050000000000002
aF0.98670000000000002
aF-0.83450000000000002
aF0.90920000000000001
aF-0.8135
aF1.0567
aF-0.78249999999999997
aF1.0967
aF-0.75549999999999995
aF1.2766999999999999
aF-0.60550000000000004
aF1.1367
aF-0.52949999999999997
aF1.0567
aF-0.54149999999999998
aF1.0691999999999999
aF-0.36049999999999999
aF0.55420000000000003
aF-0.24249999999999999
aF0.58420000000000005
aF-0.20250000000000001
aF0.47420000000000001
aF-0.1825
aF0.046699999999999998
aF-0.1845
aF0.1467
aF-0.036499999999999998
aF-0.17080000000000001
aF-0.084500000000000006
aF-0.12330000000000001
aF-0.19450000000000001
aF0.1042
aF-0.066500000000000004
aF-0.33079999999999998
aF-0.0545
aF-0.0057999999999999996
aF-0.036499999999999998
aF0.089200000000000002
aF0.072499999999999995
aF-0.2208
aF0.1855
aF0.0091999999999999998
aF0.36749999999999999
aF-0.21329999999999999
aF0.30549999999999999
aF-0.1183
aF0.23150000000000001
aF0.0167
aF0.34549999999999997
aF-0.29830000000000001
aF0.33450000000000002
aF-0.1158
aF0.36549999999999999
aF-0.27079999999999999
aF0.39950000000000002
aF-0.39579999999999999
aF0.41749999999999998
aF-0.23830000000000001
aF0.45650000000000002
aF-0.43580000000000002
aF0.33950000000000002
aF-0.26329999999999998
aF0.34250000000000003
aF-0.2233
aF0.42349999999999999
aF-0.36080000000000001
aF0.38750000000000001
aF-0.2883
aF0.36149999999999999
aF-0.46829999999999999
aF0.3085
aF-0.37330000000000002
aF0.3805
aF-0.4158
aF0.50249999999999995
aF-0.69830000000000003
aF0.47549999999999998
aF-0.52080000000000004
aF0.52449999999999997
aF-0.59330000000000005
aF0.55249999999999999
aF-0.62329999999999997
aF0.51949999999999996
aF-0.63580000000000003
aF0.4955
aF-0.83579999999999999
aF0.40550000000000003
aF-0.68079999999999996
aF0.46050000000000002
aF-0.8508
aF0.38250000000000001
aF-0.87829999999999997
aF0.14649999999999999
aF-0.5958
aF0.1075
aF-0.9083
aF0.052499999999999998
aF-0.7883
aF0.0044999999999999997
aF-0.57830000000000004
aF0.052499999999999998
aF-0.81579999999999997
aF0.037499999999999999
aF-0.52080000000000004
aF0.1245
aF-0.45079999999999998
aF0.1865
aF-0.49580000000000002
aF0.22850000000000001
aF-0.37580000000000002
aF0.35649999999999998
aF-0.43830000000000002
aF0.32850000000000001
aF-0.088300000000000003
aF0.32750000000000001
aF0.0292
aF0.40350000000000003
aF-0.035799999999999998
aF0.35149999999999998
aF0.50919999999999999
aF0.39750000000000002
aF0.55920000000000003
aF0.4425
aF0.48670000000000002
aF0.39750000000000002
aF0.69669999999999999
aF0.35849999999999999
aF0.58919999999999995
aF0.26550000000000001
aF0.63170000000000004
aF0.24249999999999999
aF0.57669999999999999
aF0.2175
aF0.53669999999999995
aF0.1075
aF0.70420000000000005
aF0.051499999999999997
aF0.63419999999999999
aF-0.021499999999999998
aF0.80669999999999997
aF-0.0094999999999999998
aF0.84919999999999995
aF0.085500000000000007
aF0.60170000000000001
aF0.060499999999999998
aF0.87170000000000003
aF0.077499999999999999
aF0.83420000000000005
aF0.064500000000000002
aF0.74670000000000003
aF-0.080500000000000002
aF1.0791999999999999
aF-0.097500000000000003
aF0.89670000000000005
aF-0.1065
aF0.86170000000000002
aF-0.14349999999999999
aF1.0066999999999999
aF-0.1825
aF0.80169999999999997
aF-0.32050000000000001
aF0.92920000000000003
aF-0.32750000000000001
aF0.85419999999999996
aF-0.23549999999999999
aF0.63919999999999999
aF-0.23949999999999999
aF0.81420000000000003
aF-0.20949999999999999
aF0.78169999999999995
aF-0.14149999999999999
aF0.66669999999999996
aF-0.071499999999999994
aF0.63670000000000004
aF-0.083500000000000005
aF0.66920000000000002
aF-0.13350000000000001
aF0.60919999999999996
aF-0.0935
aF0.26169999999999999
aF-0.20949999999999999
aF0.30170000000000002
aF-0.35549999999999998
aF0.26919999999999999
aF-0.28349999999999997
aF-0.23080000000000001
aF-0.2505
aF-0.0183
aF-0.22750000000000001
aF0.096699999999999994
aF-0.13650000000000001
aF-0.30830000000000002
aF-0.071499999999999994
aF-0.32579999999999998
aF-0.017500000000000002
aF-0.37580000000000002
aF-0.044499999999999998
aF-0.40329999999999999
aF-0.022499999999999999
aF-0.42330000000000001
aF0.090499999999999997
aF-0.63829999999999998
aF0.061499999999999999
aF-0.52829999999999999
aF-0.097500000000000003
aF-0.37830000000000003
aF-0.1145
aF-0.68579999999999997
aF-0.026499999999999999
aF-0.92830000000000001
aF-0.10249999999999999
aF-0.76580000000000004
aF-0.26950000000000002
aF-0.75580000000000003
aF-0.3095
aF-1.0808
aF-0.36049999999999999
aF-1.0632999999999999
aF-0.47949999999999998
aF-1.0732999999999999
aF-0.54149999999999998
aF-1.3358000000000001
aF-0.49349999999999999
aF-1.4108000000000001
aF-0.45350000000000001
aF-1.3158000000000001
aF-0.53349999999999997
aF-1.2707999999999999
aF-0.4965
aF-1.3383
aF-0.34649999999999997
aF-1.1457999999999999
aF-0.23849999999999999
aF-0.93830000000000002
aF-0.1875
aF-1.0133000000000001
aF-0.23150000000000001
aF-0.79079999999999995
aF-0.14549999999999999
aF-0.81579999999999997
aF-0.066500000000000004
aF-0.9083
aF-0.13450000000000001
aF-0.61829999999999996
aF-0.032500000000000001
aF-0.72330000000000005
aF0.13150000000000001
aF-0.74329999999999996
aF0.2195
aF-0.61829999999999996
aF0.22750000000000001
aF-0.69830000000000003
aF0.14249999999999999
aF-0.45329999999999998
aF0.1855
aF-0.46579999999999999
aF0.2485
aF-0.65580000000000005
aF0.17449999999999999
aF-0.52580000000000005
aF0.17849999999999999
aF-0.63329999999999997
aF0.17249999999999999
aF-0.57830000000000004
aF0.14249999999999999
aF-0.50829999999999997
aF0.13450000000000001
aF-0.61829999999999996
aF0.096500000000000002
aF-0.43580000000000002
aF0.13850000000000001
aF-0.49580000000000002
aF0.11550000000000001
aF-0.57830000000000004
aF-0.017500000000000002
aF-0.4133
aF-0.042500000000000003
aF-0.52080000000000004
aF0.00050000000000000001
aF-0.57830000000000004
aF-0.0235
aF-0.4083
aF-0.092499999999999999
aF-0.33579999999999999
aF-0.10150000000000001
aF-0.38329999999999997
aF-0.099500000000000005
aF-0.27829999999999999
aF-0.1085
aF-0.1608
aF-0.067500000000000004
aF-0.24829999999999999
aF-0.0085000000000000006
aF-0.21329999999999999
aF-0.018499999999999999
aF-0.040800000000000003
aF-0.1255
aF0.036700000000000003
aF-0.17050000000000001
aF0.034200000000000001
aF-0.0195
aF-0.098299999999999998
aF0.1145
aF-0.0458
aF0.1235
aF0.16420000000000001
aF0.1845
aF0.0016999999999999999
aF0.23549999999999999
aF0.0016999999999999999
aF0.2235
aF0.16919999999999999
aF0.25850000000000001
aF0.074200000000000002
aF0.3695
aF0.069199999999999998
aF0.49249999999999999
aF0.086699999999999999
aF0.46550000000000002
aF0.13420000000000001
aF0.36349999999999999
aF0.2492
aF0.4405
aF0.13170000000000001
aF0.52449999999999997
aF0.1767
aF0.51449999999999996
aF0.17169999999999999
aF0.4965
aF-0.0458
aF0.38750000000000001
aF0.16420000000000001
aF0.28549999999999998
aF0.2767
aF0.27450000000000002
aF0.049200000000000001
aF0.21149999999999999
aF0.30919999999999997
aF0.21149999999999999
aF0.44669999999999999
aF0.22950000000000001
aF0.30170000000000002
aF0.1235
aF0.45169999999999999
aF0.092499999999999999
aF0.4017
aF0.15049999999999999
aF0.26669999999999999
aF0.1875
aF0.31169999999999998
aF0.13850000000000001
aF0.40920000000000001
aF0.084500000000000006
aF0.44169999999999998
aF0.1145
aF0.47170000000000001
aF0.17549999999999999
aF0.58919999999999995
aF0.23449999999999999
aF0.5917
aF0.2205
aF0.70920000000000005
aF0.2515
aF0.59919999999999995
aF0.29149999999999998
aF0.30669999999999997
aF0.18049999999999999
aF0.47420000000000001
aF0.1895
aF0.37169999999999997
aF0.28549999999999998
aF0.19170000000000001
aF0.26250000000000001
aF0.48920000000000002
aF0.32050000000000001
aF0.28670000000000001
aF0.3115
aF0.29420000000000002
aF0.2515
aF0.53920000000000001
aF0.2205
aF0.36170000000000002
aF0.048500000000000001
aF0.49919999999999998
aF-0.074499999999999997
aF0.58420000000000005
aF-0.097500000000000003
aF0.38169999999999998
aF-0.1905
aF0.49170000000000003
aF-0.33350000000000002
aF0.59419999999999995
aF-0.44950000000000001
aF0.56669999999999998
aF-0.4345
aF0.42670000000000002
aF-0.48049999999999998
aF0.62670000000000003
aF-0.51949999999999996
aF0.70920000000000005
aF-0.34449999999999997
aF0.32669999999999999
aF-0.27950000000000003
aF0.5917
aF-0.2475
aF0.64670000000000005
aF-0.14549999999999999
aF0.29420000000000002
aF-0.1075
aF0.59919999999999995
aF0.043499999999999997
aF0.47920000000000001
aF0.1565
aF0.2142
aF0.1245
aF0.48170000000000002
aF0.1555
aF0.43919999999999998
aF0.23649999999999999
aF0.26669999999999999
aF0.27650000000000002
aF0.33169999999999999
aF0.32650000000000001
aF0.2767
aF0.39750000000000002
aF0.13170000000000001
aF0.39050000000000001
aF0.1867
aF0.34350000000000003
aF0.22170000000000001
aF0.47249999999999998
aF-0.1183
aF0.61450000000000005
aF-0.18079999999999999
aF0.65949999999999998
aF-0.063299999999999995
aF0.65849999999999997
aF-0.21579999999999999
aF0.60250000000000004
aF-0.17080000000000001
aF0.66649999999999998
aF-0.20830000000000001
aF0.75149999999999995
aF-0.2908
aF0.72850000000000004
aF-0.1283
aF0.6865
aF-0.035799999999999998
aF0.64549999999999996
aF-0.0683
aF0.56850000000000001
aF-0.078299999999999995
aF0.42449999999999999
aF0.031699999999999999
aF0.29749999999999999
aF0.1167
aF0.19650000000000001
aF0.1842
aF0.063500000000000001
aF0.29670000000000002
aF-0.0275
aF0.26169999999999999
aF-0.14349999999999999
aF0.49919999999999998
aF-0.1835
aF0.55920000000000003
aF-0.097500000000000003
aF0.19670000000000001
aF-0.20150000000000001
aF0.41420000000000001
aF-0.33050000000000002
aF0.53169999999999995
aF-0.28149999999999997
aF0.14419999999999999
aF-0.23749999999999999
aF0.18920000000000001
a(I2
I2048
tp4
S'd'
p5
tp6
Rp7
sS'u'
p8
g2
((lp9
F0.053100000000000001
aF-0.031300000000000001
aF0.052600000000000001
aF-0.032800000000000003
aF0.0504
aF-0.0482
aF0.042299999999999997
aF-0.1048
aF0.0269
aF-0.1515
aF0.0071999999999999998
aF-0.1404
aF-0.0091000000000000004
aF-0.093600000000000003
aF-0.027199999999999998
aF-0.076999999999999999
aF-0.060199999999999997
aF-0.071999999999999995
aF-0.096199999999999994
aF-0.1012
aF-0.12659999999999999
aF-0.2732
aF-0.15479999999999999
aF-0.49990000000000001
aF-0.18310000000000001
aF-0.68359999999999999
aF-0.2225
aF-0.84770000000000001
aF-0.26379999999999998
aF-0.95330000000000004
aF-0.28649999999999998
aF-0.99260000000000004
aF-0.28770000000000001
aF-0.95189999999999997
aF-0.26519999999999999
aF-0.81000000000000005
aF-0.22289999999999999
aF-0.65459999999999996
aF-0.16900000000000001
aF-0.48020000000000002
aF-0.1022
aF-0.31469999999999998
aF-0.026200000000000001
aF-0.21809999999999999
aF0.050799999999999998
aF-0.12139999999999999
aF0.1181
aF0.0027000000000000001
aF0.16389999999999999
aF0.129
aF0.1915
aF0.24909999999999999
aF0.21410000000000001
aF0.35010000000000002
aF0.23830000000000001
aF0.43840000000000001
aF0.2591
aF0.53249999999999997
aF0.27200000000000002
aF0.65049999999999997
aF0.28549999999999998
aF0.79590000000000005
aF0.30359999999999998
aF0.98370000000000002
aF0.318
aF1.2078
aF0.32779999999999998
aF1.4000999999999999
aF0.33329999999999999
aF1.5244
aF0.3201
aF1.6123000000000001
aF0.29199999999999998
aF1.6982999999999999
aF0.27200000000000002
aF1.7387999999999999
aF0.25559999999999999
aF1.6854
aF0.22789999999999999
aF1.5986
aF0.19539999999999999
aF1.4944999999999999
aF0.16669999999999999
aF1.3238000000000001
aF0.1384
aF1.0916999999999999
aF0.10390000000000001
aF0.85389999999999999
aF0.069699999999999998
aF0.64749999999999996
aF0.039100000000000003
aF0.42330000000000001
aF0.0027000000000000001
aF0.2235
aF-0.033000000000000002
aF0.096600000000000005
aF-0.060600000000000001
aF-0.081699999999999995
aF-0.082699999999999996
aF-0.29999999999999999
aF-0.093899999999999997
aF-0.46750000000000003
aF-0.095000000000000001
aF-0.58660000000000001
aF-0.084000000000000005
aF-0.67020000000000002
aF-0.061100000000000002
aF-0.76759999999999995
aF-0.043200000000000002
aF-0.78910000000000002
aF-0.028899999999999999
aF-0.67359999999999998
aF-0.0126
aF-0.55159999999999998
aF0.00029999999999999997
aF-0.40550000000000003
aF0.015900000000000001
aF-0.2097
aF0.034799999999999998
aF-0.040800000000000003
aF0.050599999999999999
aF0.1208
aF0.062700000000000006
aF0.30780000000000002
aF0.072300000000000003
aF0.4773
aF0.079200000000000007
aF0.50949999999999995
aF0.075200000000000003
aF0.43140000000000001
aF0.058999999999999997
aF0.40529999999999999
aF0.0378
aF0.41739999999999999
aF0.0103
aF0.441
aF-0.0258
aF0.49399999999999999
aF-0.065199999999999994
aF0.48370000000000002
aF-0.10349999999999999
aF0.36109999999999998
aF-0.1429
aF0.1376
aF-0.1847
aF-0.22509999999999999
aF-0.23400000000000001
aF-0.70169999999999999
aF-0.30359999999999998
aF-1.105
aF-0.38269999999999998
aF-1.3695999999999999
aF-0.45569999999999999
aF-1.6423000000000001
aF-0.53090000000000004
aF-1.9081999999999999
aF-0.6018
aF-2.0464000000000002
aF-0.64580000000000004
aF-2.0844
aF-0.6613
aF-2.0949
aF-0.65890000000000004
aF-2.0794000000000001
aF-0.63990000000000002
aF-1.9905999999999999
aF-0.60089999999999999
aF-1.8632
aF-0.54900000000000004
aF-1.7523
aF-0.49120000000000003
aF-1.6355999999999999
aF-0.42720000000000002
aF-1.5132000000000001
aF-0.35670000000000002
aF-1.3945000000000001
aF-0.27660000000000001
aF-1.3214999999999999
aF-0.18679999999999999
aF-1.3317000000000001
aF-0.097100000000000006
aF-1.3609
aF-0.019199999999999998
aF-1.3472999999999999
aF0.046600000000000003
aF-1.2796000000000001
aF0.1089
aF-1.2096
aF0.16439999999999999
aF-1.1581999999999999
aF0.2056
aF-1.0522
aF0.2331
aF-0.92159999999999997
aF0.24779999999999999
aF-0.83299999999999996
aF0.25180000000000002
aF-0.76129999999999998
aF0.247
aF-0.70809999999999995
aF0.2276
aF-0.69599999999999995
aF0.1865
aF-0.70760000000000001
aF0.12529999999999999
aF-0.73960000000000004
aF0.047199999999999999
aF-0.81459999999999999
aF-0.047300000000000002
aF-0.89610000000000001
aF-0.15210000000000001
aF-0.94359999999999999
aF-0.25769999999999998
aF-0.9516
aF-0.34839999999999999
aF-0.87649999999999995
aF-0.4103
aF-0.76319999999999999
aF-0.45229999999999998
aF-0.68159999999999998
aF-0.48349999999999999
aF-0.56940000000000002
aF-0.49530000000000002
aF-0.4093
aF-0.47860000000000003
aF-0.24179999999999999
aF-0.4345
aF-0.082900000000000001
aF-0.37190000000000001
aF0.056500000000000002
aF-0.2949
aF0.20730000000000001
aF-0.2016
aF0.35659999999999997
aF-0.094600000000000004
aF0.39500000000000002
aF0.017999999999999999
aF0.28029999999999999
aF0.1239
aF0.1148
aF0.2137
aF-0.035700000000000003
aF0.28510000000000002
aF-0.17760000000000001
aF0.33860000000000001
aF-0.2838
aF0.37240000000000001
aF-0.37030000000000002
aF0.38040000000000002
aF-0.42620000000000002
aF0.36059999999999998
aF-0.38819999999999999
aF0.31430000000000002
aF-0.26569999999999999
aF0.24560000000000001
aF-0.0453
aF0.1633
aF0.27260000000000001
aF0.075700000000000003
aF0.61399999999999999
aF-0.0088000000000000005
aF0.89539999999999997
aF-0.082699999999999996
aF1.0589999999999999
aF-0.13769999999999999
aF1.1857
aF-0.17069999999999999
aF1.3714999999999999
aF-0.19109999999999999
aF1.5865
aF-0.20269999999999999
aF1.7485999999999999
aF-0.20419999999999999
aF1.8322000000000001
aF-0.19009999999999999
aF1.9361999999999999
aF-0.155
aF2.0756000000000001
aF-0.115
aF2.2174999999999998
aF-0.078200000000000006
aF2.4161000000000001
aF-0.038199999999999998
aF2.5968
aF0.00089999999999999998
aF2.6974
aF0.039199999999999999
aF2.7343000000000002
aF0.075499999999999998
aF2.6634000000000002
aF0.1076
aF2.5476999999999999
aF0.1431
aF2.4411999999999998
aF0.18440000000000001
aF2.3062
aF0.22600000000000001
aF2.1947000000000001
aF0.25869999999999999
aF2.1621999999999999
aF0.27979999999999999
aF2.1829000000000001
aF0.29670000000000002
aF2.2071000000000001
aF0.31140000000000001
aF2.2195
aF0.32350000000000001
aF2.2042000000000002
aF0.33150000000000002
aF2.0931999999999999
aF0.33650000000000002
aF1.8794999999999999
aF0.34460000000000002
aF1.6516999999999999
aF0.35610000000000003
aF1.4463999999999999
aF0.3619
aF1.2298
aF0.35239999999999999
aF1.0609999999999999
aF0.33550000000000002
aF0.99129999999999996
aF0.3266
aF0.91090000000000004
aF0.32179999999999997
aF0.77310000000000001
aF0.311
aF0.6149
aF0.2969
aF0.43680000000000002
aF0.28599999999999998
aF0.2525
aF0.27400000000000002
aF0.054600000000000003
aF0.25209999999999999
aF-0.13
aF0.2261
aF-0.2571
aF0.20649999999999999
aF-0.32379999999999998
aF0.19309999999999999
aF-0.29870000000000002
aF0.18079999999999999
aF-0.2329
aF0.17280000000000001
aF-0.20599999999999999
aF0.17780000000000001
aF-0.1696
aF0.1933
aF-0.0814
aF0.21360000000000001
aF0.040099999999999997
aF0.24329999999999999
aF0.14799999999999999
aF0.28299999999999997
aF0.18640000000000001
aF0.3231
aF0.18010000000000001
aF0.3548
aF0.19850000000000001
aF0.38279999999999997
aF0.22120000000000001
aF0.40710000000000002
aF0.21299999999999999
aF0.41610000000000003
aF0.20780000000000001
aF0.40699999999999997
aF0.1729
aF0.38200000000000001
aF0.058000000000000003
aF0.34720000000000001
aF-0.1245
aF0.30909999999999999
aF-0.38829999999999998
aF0.26640000000000003
aF-0.69030000000000002
aF0.22620000000000001
aF-1.0013000000000001
aF0.193
aF-1.3467
aF0.1636
aF-1.6416999999999999
aF0.14269999999999999
aF-1.8525
aF0.12659999999999999
aF-2.0179
aF0.1118
aF-2.1202999999999999
aF0.1018
aF-2.1909000000000001
aF0.091200000000000003
aF-2.2222
aF0.077399999999999997
aF-2.1564000000000001
aF0.061400000000000003
aF-2.0299999999999998
aF0.043799999999999999
aF-1.8758999999999999
aF0.0385
aF-1.7096
aF0.045699999999999998
aF-1.5772999999999999
aF0.046100000000000002
aF-1.4479
aF0.037100000000000001
aF-1.2867
aF0.025899999999999999
aF-1.1849000000000001
aF0.013299999999999999
aF-1.1751
aF-0.0023
aF-1.1735
aF-0.023400000000000001
aF-1.1757
aF-0.042700000000000002
aF-1.2287999999999999
aF-0.054600000000000003
aF-1.3379000000000001
aF-0.0693
aF-1.4457
aF-0.086199999999999999
aF-1.4767999999999999
aF-0.096000000000000002
aF-1.4632000000000001
aF-0.1013
aF-1.4416
aF-0.10979999999999999
aF-1.3816999999999999
aF-0.13070000000000001
aF-1.2943
aF-0.16869999999999999
aF-1.1853
aF-0.2203
aF-1.0349999999999999
aF-0.28050000000000003
aF-0.81969999999999998
aF-0.3427
aF-0.53620000000000001
aF-0.39500000000000002
aF-0.27829999999999999
aF-0.42570000000000002
aF-0.1265
aF-0.43469999999999998
aF-0.035200000000000002
aF-0.42730000000000001
aF0.084900000000000003
aF-0.40799999999999997
aF0.26690000000000003
aF-0.38080000000000003
aF0.45929999999999999
aF-0.33779999999999999
aF0.60350000000000004
aF-0.27760000000000001
aF0.6956
aF-0.21390000000000001
aF0.77669999999999995
aF-0.14849999999999999
aF0.87590000000000001
aF-0.079799999999999996
aF0.9496
aF-0.0138
aF0.98670000000000002
aF0.048099999999999997
aF1.0353000000000001
aF0.1014
aF1.0584
aF0.14169999999999999
aF1.0195000000000001
aF0.18099999999999999
aF0.96430000000000005
aF0.23039999999999999
aF0.89870000000000005
aF0.27839999999999998
aF0.82230000000000003
aF0.31580000000000003
aF0.77410000000000001
aF0.34770000000000001
aF0.72409999999999997
aF0.37
aF0.61950000000000005
aF0.38090000000000002
aF0.51390000000000002
aF0.3896
aF0.44719999999999999
aF0.39350000000000002
aF0.36969999999999997
aF0.38790000000000002
aF0.3296
aF0.37809999999999999
aF0.38440000000000002
aF0.36609999999999998
aF0.47410000000000002
aF0.3493
aF0.60389999999999999
aF0.32400000000000001
aF0.70040000000000002
aF0.2858
aF0.61890000000000001
aF0.2432
aF0.44269999999999998
aF0.2074
aF0.2354
aF0.16719999999999999
aF0.012800000000000001
aF0.1183
aF-0.106
aF0.071999999999999995
aF-0.15690000000000001
aF0.0281
aF-0.1837
aF-0.010999999999999999
aF-0.14649999999999999
aF-0.042999999999999997
aF-0.1124
aF-0.069400000000000003
aF-0.090700000000000003
aF-0.082199999999999995
aF-0.0402
aF-0.084000000000000005
aF0.036600000000000001
aF-0.081299999999999997
aF0.10440000000000001
aF-0.074399999999999994
aF0.093600000000000003
aF-0.073599999999999999
aF0.0579
aF-0.0809
aF0.054600000000000003
aF-0.086900000000000005
aF0.0402
aF-0.088200000000000001
aF0.0025000000000000001
aF-0.089099999999999999
aF-0.089300000000000004
aF-0.098900000000000002
aF-0.2016
aF-0.1157
aF-0.2898
aF-0.12790000000000001
aF-0.42030000000000001
aF-0.1321
aF-0.55230000000000001
aF-0.1353
aF-0.63800000000000001
aF-0.14510000000000001
aF-0.72660000000000002
aF-0.1517
aF-0.80320000000000003
aF-0.14019999999999999
aF-0.84440000000000004
aF-0.1103
aF-0.84730000000000005
aF-0.067699999999999996
aF-0.87109999999999999
aF-0.0286
aF-0.94689999999999996
aF0.0023
aF-0.95789999999999997
aF0.038100000000000002
aF-0.94789999999999996
aF0.066400000000000001
aF-0.99929999999999997
aF0.074200000000000002
aF-1.0047999999999999
aF0.073499999999999996
aF-1.0174000000000001
aF0.061899999999999997
aF-1.1243000000000001
aF0.0339
aF-1.2704
aF-0.0041000000000000003
aF-1.4761
aF-0.051200000000000002
aF-1.6788000000000001
aF-0.097299999999999998
aF-1.7716000000000001
aF-0.1341
aF-1.8061
aF-0.16950000000000001
aF-1.7935000000000001
aF-0.1988
aF-1.7171000000000001
aF-0.2107
aF-1.6368
aF-0.21190000000000001
aF-1.5488999999999999
aF-0.21229999999999999
aF-1.4180999999999999
aF-0.2172
aF-1.2714000000000001
aF-0.2319
aF-1.0670999999999999
aF-0.25580000000000003
aF-0.71230000000000004
aF-0.2838
aF-0.26690000000000003
aF-0.31230000000000002
aF0.15310000000000001
aF-0.33900000000000002
aF0.52259999999999995
aF-0.35759999999999997
aF0.85550000000000004
aF-0.35830000000000001
aF1.1684000000000001
aF-0.34360000000000002
aF1.4303999999999999
aF-0.32329999999999998
aF1.6427
aF-0.29320000000000002
aF1.8196000000000001
aF-0.25340000000000001
aF1.8815
aF-0.21640000000000001
aF1.8872
aF-0.18160000000000001
aF1.9679
aF-0.14230000000000001
aF2.0907
aF-0.1081
aF2.2149999999999999
aF-0.092299999999999993
aF2.2823000000000002
aF-0.092600000000000002
aF2.2505000000000002
aF-0.0974
aF2.2151000000000001
aF-0.1033
aF2.1745999999999999
aF-0.113
aF2.0369000000000002
aF-0.12609999999999999
aF1.8613
aF-0.13769999999999999
aF1.7249000000000001
aF-0.14030000000000001
aF1.5792999999999999
aF-0.13100000000000001
aF1.4182999999999999
aF-0.11799999999999999
aF1.2870999999999999
aF-0.11020000000000001
aF1.1936
aF-0.10150000000000001
aF1.1863999999999999
aF-0.088599999999999998
aF1.2592000000000001
aF-0.074899999999999994
aF1.341
aF-0.047
aF1.4142999999999999
aF-0.0030999999999999999
aF1.4603999999999999
aF0.0402
aF1.5447
aF0.087599999999999997
aF1.6959
aF0.14119999999999999
aF1.7868999999999999
aF0.1883
aF1.8245
aF0.22520000000000001
aF1.8678999999999999
aF0.2467
aF1.9045000000000001
aF0.24690000000000001
aF1.9533
aF0.2301
aF1.9731000000000001
aF0.2034
aF1.9263999999999999
aF0.16789999999999999
aF1.8261000000000001
aF0.1191
aF1.7087000000000001
aF0.057799999999999997
aF1.6395
aF-0.012
aF1.5785
aF-0.085999999999999993
aF1.4653
aF-0.1515
aF1.3091999999999999
aF-0.20080000000000001
aF1.0958000000000001
aF-0.24179999999999999
aF0.84230000000000005
aF-0.27929999999999999
aF0.58979999999999999
aF-0.30530000000000002
aF0.30630000000000002
aF-0.32319999999999999
aF-0.0402
aF-0.34599999999999997
aF-0.36420000000000002
aF-0.36020000000000002
aF-0.64859999999999995
aF-0.35099999999999998
aF-1.0138
aF-0.33650000000000002
aF-1.3782000000000001
aF-0.32850000000000001
aF-1.6311
aF-0.31769999999999998
aF-1.8759999999999999
aF-0.30249999999999999
aF-2.0846
aF-0.28610000000000002
aF-2.1696
aF-0.26319999999999999
aF-2.1987999999999999
aF-0.22800000000000001
aF-2.2098
aF-0.1835
aF-2.2121
aF-0.1343
aF-2.2345999999999999
aF-0.079899999999999999
aF-2.294
aF-0.029600000000000001
aF-2.4018000000000002
aF0.0054000000000000003
aF-2.5377000000000001
aF0.037900000000000003
aF-2.6953
aF0.085000000000000006
aF-2.8761999999999999
aF0.13650000000000001
aF-3.0209000000000001
aF0.17580000000000001
aF-3.0638000000000001
aF0.2069
aF-3.0198999999999998
aF0.2399
aF-2.9710999999999999
aF0.26869999999999999
aF-2.9542999999999999
aF0.28129999999999999
aF-2.9447000000000001
aF0.2737
aF-2.9590999999999998
aF0.23849999999999999
aF-3.0112000000000001
aF0.17780000000000001
aF-3.0316999999999998
aF0.1115
aF-2.9655
aF0.046899999999999997
aF-2.8414000000000001
aF-0.025399999999999999
aF-2.7008999999999999
aF-0.10489999999999999
aF-2.5295999999999998
aF-0.1749
aF-2.2902999999999998
aF-0.2261
aF-2.0293999999999999
aF-0.27089999999999997
aF-1.8409
aF-0.316
aF-1.7059
aF-0.3553
aF-1.5587
aF-0.38869999999999999
aF-1.4311
aF-0.41320000000000001
aF-1.3691
aF-0.42020000000000002
aF-1.3607
aF-0.40789999999999998
aF-1.3743000000000001
aF-0.379
aF-1.3781000000000001
aF-0.33929999999999999
aF-1.3442000000000001
aF-0.29249999999999998
aF-1.2459
aF-0.23780000000000001
aF-1.1148
aF-0.18559999999999999
aF-0.99309999999999998
aF-0.14860000000000001
aF-0.81850000000000001
aF-0.1216
aF-0.58740000000000003
aF-0.10150000000000001
aF-0.3821
aF-0.089800000000000005
aF-0.17780000000000001
aF-0.071199999999999999
aF0.034599999999999999
aF-0.037900000000000003
aF0.20849999999999999
aF-0.0027000000000000001
aF0.37719999999999998
aF0.023599999999999999
aF0.5655
aF0.043799999999999999
aF0.7329
aF0.063500000000000001
aF0.82530000000000003
aF0.080100000000000005
aF0.8649
aF0.090300000000000005
aF0.93079999999999996
aF0.0901
aF1.0207999999999999
aF0.074399999999999994
aF1.1278999999999999
aF0.055800000000000002
aF1.2299
aF0.040800000000000003
aF1.2586999999999999
aF0.019099999999999999
aF1.2574000000000001
aF-0.0063
aF1.2484
aF-0.025499999999999998
aF1.1920999999999999
aF-0.033599999999999998
aF1.1108
aF-0.035700000000000003
aF0.99839999999999995
aF-0.041500000000000002
aF0.89080000000000004
aF-0.041599999999999998
aF0.8448
aF-0.029100000000000001
aF0.80259999999999998
aF-0.0135
aF0.75600000000000001
aF0.0064000000000000003
aF0.74060000000000004
aF0.034700000000000002
aF0.73670000000000002
aF0.063299999999999995
aF0.79390000000000005
aF0.091200000000000003
aF0.95789999999999997
aF0.1225
aF1.1168
aF0.14799999999999999
aF1.1866000000000001
aF0.16619999999999999
aF1.2185999999999999
aF0.18509999999999999
aF1.2276
aF0.1996
aF1.2387999999999999
aF0.21310000000000001
aF1.3063
aF0.23230000000000001
aF1.3793
aF0.25580000000000003
aF1.4241999999999999
aF0.29370000000000002
aF1.4094
aF0.3392
aF1.2809999999999999
aF0.37569999999999998
aF1.1217999999999999
aF0.4103
aF0.97460000000000002
aF0.44409999999999999
aF0.80900000000000005
aF0.47099999999999997
aF0.66120000000000001
aF0.49309999999999998
aF0.52910000000000001
aF0.50519999999999998
aF0.45000000000000001
aF0.49690000000000001
aF0.48249999999999998
aF0.46400000000000002
aF0.55710000000000004
aF0.41339999999999999
aF0.60070000000000001
aF0.35249999999999998
aF0.56950000000000001
aF0.28079999999999999
aF0.4708
aF0.20380000000000001
aF0.38500000000000001
aF0.13300000000000001
aF0.33289999999999997
aF0.080000000000000002
aF0.2964
aF0.0499
aF0.21540000000000001
aF0.0356
aF0.050099999999999999
aF0.034500000000000003
aF-0.1225
aF0.0424
aF-0.29630000000000001
aF0.045400000000000003
aF-0.43290000000000001
aF0.045900000000000003
aF-0.40410000000000001
aF0.050099999999999999
aF-0.27960000000000002
aF0.0562
aF-0.1394
aF0.070800000000000002
aF0.0025999999999999999
aF0.092100000000000001
aF0.10000000000000001
aF0.1173
aF0.27550000000000002
aF0.15740000000000001
aF0.55620000000000003
aF0.2034
aF0.76629999999999998
aF0.23449999999999999
aF0.86960000000000004
aF0.24660000000000001
aF0.86809999999999998
aF0.24260000000000001
aF0.8135
aF0.22939999999999999
aF0.83750000000000002
aF0.2117
aF0.91949999999999998
aF0.18890000000000001
aF1.0417000000000001
aF0.1615
aF1.2338
aF0.126
aF1.4168000000000001
aF0.081000000000000003
aF1.5368999999999999
aF0.034200000000000001
aF1.581
aF-0.0091000000000000004
aF1.5314000000000001
aF-0.050299999999999997
aF1.4240999999999999
aF-0.087599999999999997
aF1.2739
aF-0.11409999999999999
aF1.0825
aF-0.1308
aF0.91300000000000003
aF-0.14460000000000001
aF0.79449999999999998
aF-0.1608
aF0.71830000000000005
aF-0.18459999999999999
aF0.71850000000000003
aF-0.21690000000000001
aF0.79079999999999995
aF-0.25019999999999998
aF0.85770000000000002
aF-0.2747
aF0.85709999999999997
aF-0.29110000000000003
aF0.79649999999999999
aF-0.30549999999999999
aF0.70699999999999996
aF-0.31530000000000002
aF0.54600000000000004
aF-0.32419999999999999
aF0.29870000000000002
aF-0.3392
aF0.070599999999999996
aF-0.3528
aF-0.070999999999999994
aF-0.3649
aF-0.1759
aF-0.38269999999999998
aF-0.31879999999999997
aF-0.3987
aF-0.50329999999999997
aF-0.40610000000000002
aF-0.69320000000000004
aF-0.41070000000000001
aF-0.87360000000000004
aF-0.40889999999999999
aF-1.0088999999999999
aF-0.39419999999999999
aF-1.1045
aF-0.37380000000000002
aF-1.2074
aF-0.34899999999999998
aF-1.3199000000000001
aF-0.3125
aF-1.4542999999999999
aF-0.26850000000000002
aF-1.5904
aF-0.2324
aF-1.6778999999999999
aF-0.2177
aF-1.7222
aF-0.2177
aF-1.7123999999999999
aF-0.21909999999999999
aF-1.6439999999999999
aF-0.22620000000000001
aF-1.5442
aF-0.24460000000000001
aF-1.4282999999999999
aF-0.26750000000000002
aF-1.3620000000000001
aF-0.28520000000000001
aF-1.3847
aF-0.29149999999999998
aF-1.4220999999999999
aF-0.28589999999999999
aF-1.4240999999999999
aF-0.26619999999999999
aF-1.4117
aF-0.2261
aF-1.4120999999999999
aF-0.1681
aF-1.4674
aF-0.1067
aF-1.5855999999999999
aF-0.048399999999999999
aF-1.7122999999999999
aF0.0054999999999999997
aF-1.8149
aF0.0441
aF-1.8852
aF0.066199999999999995
aF-1.9856
aF0.076899999999999996
aF-2.2193000000000001
aF0.069000000000000006
aF-2.4788000000000001
aF0.043299999999999998
aF-2.5547
aF0.0121
aF-2.4502000000000002
aF-0.016299999999999999
aF-2.3174000000000001
aF-0.043099999999999999
aF-2.2534999999999998
aF-0.069000000000000006
aF-2.2237
aF-0.083000000000000004
aF-2.1825999999999999
aF-0.080199999999999994
aF-2.161
aF-0.064399999999999999
aF-2.1314000000000002
aF-0.038899999999999997
aF-2.0083000000000002
aF-0.0144
aF-1.7806999999999999
aF0.0038999999999999998
aF-1.5044999999999999
aF0.018100000000000002
aF-1.2184999999999999
aF0.025700000000000001
aF-0.91349999999999998
aF0.0253
aF-0.59009999999999996
aF0.011900000000000001
aF-0.28039999999999998
aF-0.0223
aF0.028400000000000002
aF-0.0722
aF0.36680000000000001
aF-0.12479999999999999
aF0.69310000000000005
aF-0.1762
aF0.98260000000000003
aF-0.22789999999999999
aF1.2386999999999999
aF-0.28010000000000002
aF1.4080999999999999
aF-0.33129999999999998
aF1.4823999999999999
aF-0.37140000000000001
aF1.4585999999999999
aF-0.39400000000000002
aF1.3293999999999999
aF-0.40579999999999999
aF1.2356
aF-0.41239999999999999
aF1.256
aF-0.4123
aF1.3011999999999999
aF-0.39879999999999999
aF1.2607999999999999
aF-0.37519999999999998
aF1.0713999999999999
aF-0.35630000000000001
aF0.84909999999999997
aF-0.34279999999999999
aF0.67759999999999998
aF-0.3337
aF0.46899999999999997
aF-0.3337
aF0.2571
aF-0.33160000000000001
aF0.0998
aF-0.314
aF-0.0275
aF-0.2848
aF-0.1338
aF-0.25750000000000001
aF-0.25280000000000002
aF-0.23419999999999999
aF-0.36849999999999999
aF-0.20830000000000001
aF-0.47699999999999998
aF-0.1875
aF-0.6038
aF-0.1767
aF-0.68910000000000005
aF-0.16470000000000001
aF-0.72740000000000005
aF-0.14960000000000001
aF-0.75680000000000003
aF-0.14269999999999999
aF-0.81459999999999999
aF-0.14380000000000001
aF-0.92730000000000001
aF-0.1384
aF-1.0284
aF-0.1249
aF-1.1491
aF-0.1147
aF-1.3249
aF-0.098900000000000002
aF-1.4528000000000001
aF-0.061899999999999997
aF-1.5434000000000001
aF-0.0080999999999999996
aF-1.6087
aF0.050700000000000002
aF-1.6067
aF0.1051
aF-1.5640000000000001
aF0.1482
aF-1.4225000000000001
aF0.1804
aF-1.1516
aF0.20269999999999999
aF-0.80820000000000003
aF0.2135
aF-0.41649999999999998
aF0.21479999999999999
aF-0.038300000000000001
aF0.20760000000000001
aF0.31440000000000001
aF0.20039999999999999
aF0.62439999999999996
aF0.21099999999999999
aF0.79090000000000005
aF0.2361
aF0.82130000000000003
aF0.26019999999999999
aF0.76200000000000001
aF0.28410000000000002
aF0.61439999999999995
aF0.30559999999999998
aF0.4209
aF0.31759999999999999
aF0.2084
aF0.32500000000000001
aF-0.0407
aF0.32869999999999999
aF-0.33279999999999998
aF0.31869999999999998
aF-0.62660000000000005
aF0.29609999999999997
aF-0.88939999999999997
aF0.27400000000000002
aF-1.0959000000000001
aF0.25419999999999998
aF-1.1684000000000001
aF0.2321
aF-1.0800000000000001
aF0.21099999999999999
aF-0.88080000000000003
aF0.19
aF-0.64149999999999996
aF0.16819999999999999
aF-0.4753
aF0.14580000000000001
aF-0.44140000000000001
aF0.1163
aF-0.43859999999999999
aF0.089099999999999999
aF-0.37330000000000002
aF0.075999999999999998
aF-0.32169999999999999
aF0.066900000000000001
aF-0.30099999999999999
aF0.056000000000000001
aF-0.2167
aF0.047600000000000003
aF-0.106
aF0.0458
aF-0.023
aF0.053999999999999999
aF0.0155
aF0.066799999999999998
aF-0.0147
aF0.079200000000000007
aF-0.039800000000000002
aF0.093299999999999994
aF-0.034700000000000002
aF0.1089
aF-0.037400000000000003
aF0.1195
aF-0.037999999999999999
aF0.1195
aF-0.017899999999999999
aF0.111
aF0.067299999999999999
aF0.091600000000000001
aF0.21590000000000001
aF0.0596
aF0.39600000000000002
aF0.026700000000000002
aF0.60760000000000003
aF-0.0016999999999999999
aF0.85189999999999999
aF-0.024799999999999999
aF1.1211
aF-0.041399999999999999
aF1.3389
aF-0.050500000000000003
aF1.4804999999999999
aF-0.041799999999999997
aF1.5472999999999999
aF-0.018200000000000001
aF1.5085999999999999
aF0.0047000000000000002
aF1.4785999999999999
aF0.0286
aF1.4618
aF0.054399999999999997
aF1.3645
aF0.073499999999999996
aF1.2553000000000001
aF0.080399999999999999
aF1.1186
aF0.076799999999999993
aF0.93359999999999999
aF0.070000000000000007
aF0.76480000000000004
aF0.064199999999999993
aF0.59640000000000004
aF0.0608
aF0.42080000000000001
aF0.060199999999999997
aF0.23069999999999999
aF0.0659
aF0.051400000000000001
aF0.082000000000000003
aF-0.094500000000000001
aF0.095600000000000004
aF-0.22559999999999999
aF0.094799999999999995
aF-0.28070000000000001
aF0.086800000000000002
aF-0.29449999999999998
aF0.075399999999999995
aF-0.34939999999999999
aF0.0574
aF-0.40329999999999999
aF0.035700000000000003
aF-0.4587
aF0.015599999999999999
aF-0.53459999999999996
aF-0.0023
aF-0.62370000000000003
aF-0.016500000000000001
aF-0.7228
aF-0.023
aF-0.79279999999999995
aF-0.028400000000000002
aF-0.82189999999999996
aF-0.0327
aF-0.80359999999999998
aF-0.021000000000000001
aF-0.74660000000000004
aF0.0111
aF-0.72419999999999995
aF0.059200000000000003
aF-0.75729999999999997
aF0.1231
aF-0.78439999999999999
aF0.19989999999999999
aF-0.77939999999999998
aF0.28039999999999998
aF-0.75129999999999997
aF0.35599999999999998
aF-0.6774
aF0.41980000000000001
aF-0.58540000000000003
aF0.46500000000000002
aF-0.52769999999999995
aF0.4975
aF-0.48880000000000001
aF0.53290000000000004
aF-0.48559999999999998
aF0.57140000000000002
aF-0.52859999999999996
aF0.59740000000000004
aF-0.55279999999999996
aF0.60360000000000003
aF-0.52370000000000005
aF0.6018
aF-0.45129999999999998
aF0.59950000000000003
aF-0.34139999999999998
aF0.59160000000000001
aF-0.20100000000000001
aF0.57540000000000002
aF-0.062600000000000003
aF0.55420000000000003
aF0.047
aF0.53749999999999998
aF0.096299999999999997
aF0.53059999999999996
aF0.063700000000000007
aF0.52959999999999996
aF0.0064999999999999997
aF0.53190000000000004
aF-0.082100000000000006
aF0.52390000000000003
aF-0.23300000000000001
aF0.49109999999999998
aF-0.35339999999999999
aF0.43680000000000002
aF-0.40410000000000001
aF0.37740000000000001
aF-0.43959999999999999
aF0.32990000000000003
aF-0.51890000000000003
aF0.29459999999999997
aF-0.58760000000000001
aF0.2732
aF-0.51180000000000003
aF0.27350000000000002
aF-0.36759999999999998
aF0.28970000000000001
aF-0.24879999999999999
aF0.31879999999999997
aF-0.11070000000000001
aF0.35799999999999998
aF0.031
aF0.39989999999999998
aF0.2099
aF0.44159999999999999
aF0.45369999999999999
aF0.4758
aF0.6744
aF0.50329999999999997
aF0.81669999999999998
aF0.52490000000000003
aF0.88119999999999998
aF0.5302
aF0.92259999999999998
aF0.52129999999999999
aF0.95720000000000005
aF0.49669999999999997
aF0.95279999999999998
aF0.45350000000000001
aF0.95630000000000004
aF0.4022
aF0.99229999999999996
aF0.34350000000000003
aF1.0462
aF0.28160000000000002
aF1.1181000000000001
aF0.2276
aF1.1811
aF0.17519999999999999
aF1.2622
aF0.1188
aF1.4145000000000001
aF0.062399999999999997
aF1.5738000000000001
aF0.0118
aF1.6516
aF-0.033300000000000003
aF1.6513
aF-0.082600000000000007
aF1.5769
aF-0.1318
aF1.4702
aF-0.16700000000000001
aF1.4120999999999999
aF-0.19170000000000001
aF1.3593999999999999
aF-0.21249999999999999
aF1.2994000000000001
aF-0.22489999999999999
aF1.2766999999999999
aF-0.2319
aF1.2354000000000001
aF-0.24299999999999999
aF1.1914
aF-0.25979999999999998
aF1.1598999999999999
aF-0.28179999999999999
aF1.0551999999999999
aF-0.30759999999999998
aF0.89829999999999999
aF-0.32100000000000001
aF0.74770000000000003
aF-0.31009999999999999
aF0.61460000000000004
aF-0.28999999999999998
aF0.51629999999999998
aF-0.27229999999999999
aF0.45569999999999999
aF-0.2465
aF0.38690000000000002
aF-0.2099
aF0.24990000000000001
aF-0.1739
aF0.1037
aF-0.1512
aF0.011900000000000001
aF-0.1484
aF-0.051900000000000002
aF-0.151
aF-0.069900000000000004
aF-0.14949999999999999
aF-0.057500000000000002
aF-0.15720000000000001
aF-0.049399999999999999
aF-0.17150000000000001
aF-0.061199999999999997
aF-0.18099999999999999
aF-0.1391
aF-0.19159999999999999
aF-0.23169999999999999
aF-0.20449999999999999
aF-0.30659999999999998
aF-0.2152
aF-0.40150000000000002
aF-0.2228
aF-0.51039999999999996
aF-0.22639999999999999
aF-0.66690000000000005
aF-0.23219999999999999
aF-0.83040000000000003
aF-0.2424
aF-0.92020000000000002
aF-0.24379999999999999
aF-0.95489999999999997
aF-0.2288
aF-0.92320000000000002
aF-0.20760000000000001
aF-0.8649
aF-0.18809999999999999
aF-0.8226
aF-0.16700000000000001
aF-0.7409
aF-0.14510000000000001
aF-0.64249999999999996
aF-0.123
aF-0.56379999999999997
aF-0.098400000000000001
aF-0.5363
aF-0.080299999999999996
aF-0.59530000000000005
aF-0.072900000000000006
aF-0.65549999999999997
aF-0.063200000000000006
aF-0.6865
aF-0.048899999999999999
aF-0.72489999999999999
aF-0.043900000000000002
aF-0.70279999999999998
aF-0.045100000000000001
aF-0.60419999999999996
aF-0.040599999999999997
aF-0.52690000000000003
aF-0.038300000000000001
aF-0.4894
aF-0.048500000000000001
aF-0.44379999999999997
aF-0.067900000000000002
aF-0.43309999999999998
aF-0.089499999999999996
aF-0.4768
aF-0.1077
aF-0.49580000000000002
aF-0.13289999999999999
aF-0.49509999999999998
aF-0.17369999999999999
aF-0.52210000000000001
aF-0.2132
aF-0.57389999999999997
aF-0.24030000000000001
aF-0.65890000000000004
aF-0.25750000000000001
aF-0.75919999999999999
aF-0.26390000000000002
aF-0.82950000000000002
aF-0.25940000000000002
aF-0.88649999999999995
aF-0.24399999999999999
aF-0.99619999999999997
aF-0.22670000000000001
aF-1.1301000000000001
aF-0.21829999999999999
aF-1.1910000000000001
aF-0.21229999999999999
aF-1.1803999999999999
aF-0.20630000000000001
aF-1.1308
aF-0.21029999999999999
aF-1.0522
aF-0.2177
aF-0.97230000000000005
aF-0.20849999999999999
aF-0.89739999999999998
aF-0.18160000000000001
aF-0.85199999999999998
aF-0.14710000000000001
aF-0.85409999999999997
aF-0.1048
aF-0.86219999999999997
aF-0.057599999999999998
aF-0.84630000000000005
aF-0.013599999999999999
aF-0.81920000000000004
aF0.0235
aF-0.77880000000000005
aF0.055100000000000003
aF-0.70209999999999995
aF0.085599999999999996
aF-0.64670000000000005
aF0.112
aF-0.64490000000000003
aF0.12970000000000001
aF-0.62909999999999999
aF0.14330000000000001
aF-0.60980000000000001
aF0.14929999999999999
aF-0.56489999999999996
aF0.14130000000000001
aF-0.41999999999999998
aF0.12509999999999999
aF-0.2349
aF0.10349999999999999
aF-0.072300000000000003
aF0.071400000000000005
aF0.087099999999999997
aF0.029999999999999999
aF0.28660000000000002
aF-0.0115
aF0.52329999999999999
aF-0.047399999999999998
aF0.79159999999999997
aF-0.076499999999999999
aF1.1561999999999999
aF-0.098100000000000007
aF1.5228999999999999
aF-0.1162
aF1.7436
aF-0.13159999999999999
aF1.8822000000000001
aF-0.13489999999999999
aF1.9916
aF-0.1202
aF2.0390999999999999
aF-0.093200000000000005
aF2.0123000000000002
aF-0.060900000000000003
aF1.921
aF-0.0293
aF1.8059000000000001
aF-0.0051999999999999998
aF1.7253000000000001
aF0.0091000000000000004
aF1.7317
aF0.0063
aF1.7909999999999999
aF-0.017500000000000002
aF1.8525
aF-0.045999999999999999
aF1.9114
aF-0.065600000000000006
aF1.9435
aF-0.079299999999999995
aF1.9966999999999999
aF-0.088999999999999996
aF2.0655000000000001
aF-0.097100000000000006
aF2.0547
aF-0.1056
aF1.9936
aF-0.1133
aF1.9289000000000001
aF-0.1202
aF1.8841000000000001
aF-0.1278
aF1.8653
aF-0.14560000000000001
aF1.8272999999999999
aF-0.17960000000000001
aF1.7729999999999999
aF-0.21909999999999999
aF1.6584000000000001
aF-0.25440000000000002
aF1.4742999999999999
aF-0.28539999999999999
aF1.3089
aF-0.32079999999999997
aF1.1494
aF-0.36420000000000002
aF0.99270000000000003
aF-0.4052
aF0.82630000000000003
aF-0.44429999999999997
aF0.57799999999999996
aF-0.48909999999999998
aF0.31030000000000002
aF-0.5373
aF0.11070000000000001
aF-0.58489999999999998
aF0.033399999999999999
aF-0.62119999999999997
aF0.1017
aF-0.63749999999999996
aF0.21410000000000001
aF-0.63490000000000002
aF0.31869999999999998
aF-0.60999999999999999
aF0.4173
aF-0.57469999999999999
aF0.44040000000000001
aF-0.54530000000000001
aF0.3679
aF-0.51160000000000005
aF0.24959999999999999
aF-0.46739999999999998
aF0.13139999999999999
aF-0.4214
aF0.031600000000000003
aF-0.38109999999999999
aF-0.0349
aF-0.3498
aF-0.0504
aF-0.3165
aF-0.077200000000000005
aF-0.27360000000000001
aF-0.19109999999999999
aF-0.23330000000000001
aF-0.38450000000000001
aF-0.21160000000000001
aF-0.60799999999999998
aF-0.214
aF-0.7873
aF-0.2278
aF-0.90549999999999997
aF-0.23680000000000001
aF-1.0028999999999999
aF-0.23499999999999999
aF-1.0601
aF-0.22320000000000001
aF-1.0792999999999999
aF-0.21659999999999999
aF-1.0744
aF-0.2288
aF-0.96630000000000005
aF-0.2482
aF-0.76300000000000001
aF-0.25979999999999998
aF-0.59670000000000001
aF-0.26179999999999998
aF-0.49249999999999999
aF-0.25900000000000001
aF-0.40100000000000002
aF-0.255
aF-0.33279999999999998
aF-0.24310000000000001
aF-0.29459999999999997
aF-0.21659999999999999
aF-0.2787
aF-0.1817
aF-0.31219999999999998
aF-0.14080000000000001
aF-0.40760000000000002
aF-0.095500000000000002
aF-0.5121
aF-0.058000000000000003
aF-0.54059999999999997
aF-0.037100000000000001
aF-0.49959999999999999
aF-0.035700000000000003
aF-0.46310000000000001
aF-0.049700000000000001
aF-0.44359999999999999
aF-0.073700000000000002
aF-0.45190000000000002
aF-0.1119
aF-0.46870000000000001
aF-0.15609999999999999
aF-0.45429999999999998
aF-0.19500000000000001
aF-0.48759999999999998
aF-0.23430000000000001
aF-0.5827
aF-0.26950000000000002
aF-0.69240000000000002
aF-0.29830000000000001
aF-0.88149999999999995
aF-0.33250000000000002
aF-1.1116999999999999
aF-0.36559999999999998
aF-1.2956000000000001
aF-0.3906
aF-1.4858
aF-0.41980000000000001
aF-1.6773
aF-0.45440000000000003
aF-1.8111999999999999
aF-0.48170000000000002
aF-1.9092
aF-0.49840000000000001
aF-1.9623999999999999
aF-0.50519999999999998
aF-1.9578
aF-0.50429999999999997
aF-1.9750000000000001
aF-0.50049999999999994
aF-2.0244
aF-0.48949999999999999
aF-2.0491999999999999
aF-0.4713
aF-2.0865
aF-0.44850000000000001
aF-2.1328999999999998
aF-0.4108
aF-2.1318000000000001
aF-0.35620000000000002
aF-2.1063999999999998
aF-0.28970000000000001
aF-2.0510000000000002
aF-0.2097
aF-1.9414
aF-0.124
aF-1.8254999999999999
aF-0.0458
aF-1.7261
aF0.017600000000000001
aF-1.5931999999999999
aF0.066199999999999995
aF-1.4228000000000001
aF0.10489999999999999
aF-1.3029999999999999
aF0.13350000000000001
aF-1.2418
aF0.14829999999999999
aF-1.1914
aF0.14660000000000001
aF-1.1992
aF0.12820000000000001
aF-1.252
aF0.099199999999999997
aF-1.2430000000000001
aF0.069900000000000004
aF-1.151
aF0.047800000000000002
aF-1.0541
aF0.032199999999999999
aF-0.98519999999999996
aF0.0207
aF-0.89639999999999997
aF0.0094000000000000004
aF-0.81659999999999999
aF-0.010800000000000001
aF-0.76870000000000005
aF-0.042099999999999999
aF-0.66279999999999994
aF-0.081600000000000006
aF-0.51659999999999995
aF-0.124
aF-0.4531
aF-0.15870000000000001
aF-0.4955
aF-0.17649999999999999
aF-0.5726
aF-0.16969999999999999
aF-0.63859999999999995
aF-0.1396
aF-0.69450000000000001
aF-0.098599999999999993
aF-0.76090000000000002
aF-0.057700000000000001
aF-0.8911
aF-0.017899999999999999
aF-1.0589999999999999
aF0.025999999999999999
aF-1.1811
aF0.0683
aF-1.2444
aF0.094899999999999998
aF-1.1919999999999999
aF0.10730000000000001
aF-1.0508
aF0.11550000000000001
aF-0.99750000000000005
aF0.12139999999999999
aF-1.0199
aF0.1192
aF-0.98839999999999995
aF0.1011
aF-0.89549999999999996
aF0.070599999999999996
aF-0.77339999999999998
aF0.043499999999999997
aF-0.65739999999999998
aF0.025399999999999999
aF-0.56810000000000005
aF0.0071999999999999998
aF-0.4466
aF-0.0080000000000000002
aF-0.2535
aF-0.0115
aF-0.087300000000000003
aF-0.0112
aF-0.012999999999999999
aF-0.0088999999999999999
aF0.036900000000000002
aF0.0030000000000000001
aF0.0533
aF0.019400000000000001
aF-0.0025000000000000001
aF0.037400000000000003
aF-0.033799999999999997
aF0.060699999999999997
aF0.0134
aF0.086900000000000005
aF0.066600000000000006
aF0.1116
aF0.10829999999999999
aF0.13289999999999999
aF0.17760000000000001
aF0.1515
aF0.22689999999999999
aF0.1643
aF0.2195
aF0.16769999999999999
aF0.2351
aF0.17130000000000001
aF0.28599999999999998
aF0.18129999999999999
aF0.27689999999999998
aF0.1898
aF0.1852
aF0.19370000000000001
aF0.080000000000000002
aF0.19600000000000001
aF0.012500000000000001
aF0.20580000000000001
aF-0.067900000000000002
aF0.23130000000000001
aF-0.20669999999999999
aF0.26040000000000002
aF-0.29749999999999999
aF0.28060000000000002
aF-0.27229999999999999
aF0.29189999999999999
aF-0.2029
aF0.28989999999999999
aF-0.098599999999999993
aF0.27310000000000001
aF0.0407
aF0.24199999999999999
aF0.12520000000000001
aF0.19900000000000001
aF0.1201
aF0.15509999999999999
aF0.061199999999999997
aF0.1148
aF-0.00020000000000000001
aF0.080399999999999999
aF-0.021399999999999999
aF0.062600000000000003
aF-0.048399999999999999
aF0.058999999999999997
aF-0.1404
aF0.060400000000000002
aF-0.2218
aF0.073099999999999998
aF-0.20849999999999999
aF0.099699999999999997
aF-0.16950000000000001
aF0.1295
aF-0.15040000000000001
aF0.15559999999999999
aF-0.1147
aF0.1749
aF-0.1237
aF0.1857
aF-0.2165
aF0.18590000000000001
aF-0.29559999999999997
aF0.1726
aF-0.29060000000000002
aF0.15559999999999999
aF-0.2457
aF0.14169999999999999
aF-0.22639999999999999
aF0.12690000000000001
aF-0.20380000000000001
aF0.1129
aF-0.17530000000000001
aF0.099199999999999997
aF-0.1663
aF0.087499999999999994
aF-0.1169
aF0.079000000000000001
aF-0.058200000000000002
aF0.066299999999999998
aF-0.017399999999999999
aF0.0562
aF0.066500000000000004
aF0.053100000000000001
aF0.1512
aF0.046100000000000002
aF0.21510000000000001
aF0.037400000000000003
aF0.24879999999999999
aF0.036999999999999998
aF0.21149999999999999
aF0.049200000000000001
aF0.13769999999999999
aF0.065000000000000002
aF0.017999999999999999
aF0.074999999999999997
aF-0.14999999999999999
aF0.089099999999999999
aF-0.33960000000000001
aF0.1133
aF-0.54159999999999997
aF0.1401
aF-0.71389999999999998
aF0.1603
aF-0.90090000000000003
aF0.17799999999999999
aF-1.1065
aF0.2099
aF-1.2319
aF0.25530000000000003
aF-1.2787999999999999
aF0.30759999999999998
aF-1.2665999999999999
aF0.36849999999999999
aF-1.2250000000000001
aF0.43049999999999999
aF-1.1970000000000001
aF0.48559999999999998
aF-1.1524000000000001
aF0.5373
aF-1.1079000000000001
aF0.5897
aF-1.0976999999999999
aF0.63619999999999999
aF-1.0851
aF0.66990000000000005
aF-1.0496000000000001
aF0.68940000000000001
aF-0.99760000000000004
aF0.69010000000000005
aF-0.90600000000000003
aF0.67190000000000005
aF-0.76770000000000005
aF0.6371
aF-0.6139
aF0.58489999999999998
aF-0.44629999999999997
aF0.52190000000000003
aF-0.27829999999999999
aF0.45729999999999998
aF-0.1421
aF0.40200000000000002
aF-0.045100000000000001
aF0.35589999999999999
aF0.038899999999999997
aF0.30499999999999999
aF0.20569999999999999
aF0.25209999999999999
aF0.42709999999999998
aF0.20649999999999999
aF0.56430000000000002
aF0.1686
aF0.6331
aF0.1358
aF0.67220000000000002
aF0.1037
aF0.67969999999999997
aF0.077799999999999994
aF0.65849999999999997
aF0.062399999999999997
aF0.59499999999999997
aF0.051700000000000003
aF0.54069999999999996
aF0.047300000000000002
aF0.53320000000000001
aF0.0465
aF0.61050000000000004
aF0.038199999999999998
aF0.75900000000000001
aF0.0154
aF0.83660000000000001
aF-0.017899999999999999
aF0.86040000000000005
aF-0.047
aF0.88719999999999999
aF-0.062600000000000003
aF0.87519999999999998
aF-0.060199999999999997
aF0.88129999999999997
aF-0.0402
aF0.88629999999999998
aF-0.0124
aF0.83909999999999996
aF0.019199999999999998
aF0.79190000000000005
aF0.055399999999999998
aF0.73609999999999998
aF0.092899999999999996
aF0.67510000000000003
aF0.13039999999999999
aF0.61839999999999995
aF0.16389999999999999
aF0.56999999999999995
aF0.19670000000000001
aF0.60929999999999995
aF0.23380000000000001
aF0.70930000000000004
aF0.26450000000000001
aF0.80049999999999999
aF0.28689999999999999
aF0.89149999999999996
aF0.30909999999999999
aF0.9385
aF0.3251
aF0.94640000000000002
aF0.33110000000000001
aF0.95860000000000001
aF0.33129999999999998
aF0.92689999999999995
aF0.32240000000000002
aF0.88370000000000004
aF0.29999999999999999
aF0.90510000000000002
aF0.26790000000000003
aF0.95569999999999999
aF0.23599999999999999
aF1.0002
aF0.20760000000000001
aF0.98299999999999998
aF0.17599999999999999
aF0.86919999999999997
aF0.13950000000000001
aF0.75080000000000002
aF0.1052
aF0.64990000000000003
aF0.077399999999999997
aF0.56989999999999996
aF0.051700000000000003
aF0.61380000000000001
aF0.021299999999999999
aF0.72870000000000001
aF-0.0184
aF0.79769999999999996
aF-0.066799999999999998
aF0.8589
aF-0.1192
aF0.91559999999999997
aF-0.17469999999999999
aF0.90259999999999996
aF-0.23230000000000001
aF0.81259999999999999
aF-0.28389999999999999
aF0.67000000000000004
aF-0.32329999999999998
aF0.52039999999999997
aF-0.34849999999999998
aF0.42899999999999999
aF-0.35499999999999998
aF0.4219
aF-0.34260000000000002
aF0.47010000000000002
aF-0.31719999999999998
aF0.55230000000000001
aF-0.27910000000000001
aF0.64319999999999999
aF-0.23150000000000001
aF0.68049999999999999
aF-0.18940000000000001
aF0.69169999999999998
aF-0.15909999999999999
aF0.76690000000000003
aF-0.13519999999999999
aF0.87549999999999994
aF-0.11360000000000001
aF0.93479999999999996
aF-0.0901
aF0.94189999999999996
aF-0.064299999999999996
aF0.92249999999999999
aF-0.0407
aF0.85219999999999996
aF-0.022499999999999999
aF0.72950000000000004
aF-0.0137
aF0.60809999999999997
aF-0.015100000000000001
aF0.47410000000000002
aF-0.027400000000000001
aF0.3231
aF-0.051999999999999998
aF0.21340000000000001
aF-0.086400000000000005
aF0.12540000000000001
aF-0.1263
aF0.025600000000000001
aF-0.1653
aF-0.077799999999999994
aF-0.1988
aF-0.17119999999999999
aF-0.2238
aF-0.26469999999999999
aF-0.2412
aF-0.37409999999999999
aF-0.25490000000000002
aF-0.40060000000000001
aF-0.25729999999999997
aF-0.32400000000000001
aF-0.24329999999999999
aF-0.2505
aF-0.22309999999999999
aF-0.15340000000000001
aF-0.2069
aF-0.041000000000000002
aF-0.20000000000000001
aF0.023800000000000002
aF-0.2001
aF0.054399999999999997
aF-0.20369999999999999
aF-0.0099000000000000008
aF-0.2104
aF-0.17879999999999999
aF-0.216
aF-0.35639999999999999
aF-0.21859999999999999
aF-0.50239999999999996
aF-0.21859999999999999
aF-0.58709999999999996
aF-0.21079999999999999
aF-0.59160000000000001
aF-0.19009999999999999
aF-0.58450000000000002
aF-0.16789999999999999
aF-0.62409999999999999
aF-0.1573
aF-0.63770000000000004
aF-0.153
aF-0.61890000000000001
aF-0.15690000000000001
aF-0.63390000000000002
aF-0.1734
aF-0.60509999999999997
aF-0.1951
aF-0.53190000000000004
aF-0.22370000000000001
aF-0.44740000000000002
aF-0.2571
aF-0.30819999999999997
aF-0.28789999999999999
aF-0.22109999999999999
aF-0.31879999999999997
aF-0.17929999999999999
aF-0.34289999999999998
aF-0.088099999999999998
aF-0.35410000000000003
aF-0.029700000000000001
aF-0.36180000000000001
aF0.0134
aF-0.37159999999999999
aF0.0785
aF-0.37190000000000001
aF0.090999999999999998
aF-0.35460000000000003
aF0.053499999999999999
aF-0.33450000000000002
aF0.032000000000000001
aF-0.316
aF0.082100000000000006
aF-0.28920000000000001
aF0.17730000000000001
aF-0.25869999999999999
aF0.29220000000000002
aF-0.22140000000000001
aF0.4446
aF-0.1671
aF0.55489999999999995
aF-0.105
aF0.58450000000000002
aF-0.048599999999999997
aF0.59660000000000002
aF0.0032000000000000002
aF0.5948
aF0.0516
aF0.5806
aF0.086300000000000002
aF0.58079999999999998
aF0.1019
aF0.55700000000000005
aF0.1007
aF0.48949999999999999
aF0.082299999999999998
aF0.44750000000000001
aF0.048599999999999997
aF0.45169999999999999
aF0.0106
aF0.4461
aF-0.020400000000000001
aF0.39679999999999999
aF-0.042700000000000002
aF0.33739999999999998
aF-0.057000000000000002
aF0.34250000000000003
aF-0.066199999999999995
aF0.40939999999999999
aF-0.074899999999999994
aF0.498
aF-0.076700000000000004
aF0.59809999999999997
aF-0.068900000000000003
aF0.68879999999999997
aF-0.057700000000000001
aF0.78810000000000002
aF-0.046899999999999997
aF0.8619
aF-0.042200000000000001
aF0.83209999999999995
aF-0.038699999999999998
aF0.74660000000000004
aF-0.0309
aF0.66339999999999999
aF-0.026800000000000001
aF0.57940000000000003
aF-0.030700000000000002
aF0.50019999999999998
aF-0.050799999999999998
aF0.47599999999999998
aF-0.089399999999999993
aF0.56789999999999996
aF-0.1283
aF0.70779999999999998
aF-0.1663
aF0.79190000000000005
aF-0.21329999999999999
aF0.82650000000000001
aF-0.25990000000000002
aF0.83740000000000003
aF-0.2969
aF0.81620000000000004
aF-0.32100000000000001
aF0.74199999999999999
aF-0.32150000000000001
aF0.57299999999999995
aF-0.30130000000000001
aF0.2979
aF-0.26800000000000002
aF0.0143
aF-0.2172
aF-0.19309999999999999
aF-0.15679999999999999
aF-0.34820000000000001
aF-0.099000000000000005
aF-0.50549999999999995
aF-0.047500000000000001
aF-0.71779999999999999
aF-0.0025000000000000001
aF-0.93410000000000004
aF0.042799999999999998
aF-1.0833999999999999
aF0.0814
aF-1.2097
aF0.109
aF-1.3174999999999999
aF0.1336
aF-1.4127000000000001
aF0.14449999999999999
aF-1.5065
aF0.1424
aF-1.5893999999999999
aF0.13789999999999999
aF-1.7094
aF0.11940000000000001
aF-1.7627999999999999
aF0.087099999999999997
aF-1.6474
aF0.054100000000000002
aF-1.4894000000000001
aF0.020500000000000001
aF-1.3807
aF-0.0189
aF-1.3325
aF-0.063
aF-1.3452
aF-0.1055
aF-1.4067000000000001
aF-0.14729999999999999
aF-1.4711000000000001
aF-0.18859999999999999
aF-1.4662999999999999
aF-0.22520000000000001
aF-1.4404999999999999
aF-0.2545
aF-1.4530000000000001
aF-0.27260000000000001
aF-1.4790000000000001
aF-0.28039999999999998
aF-1.5290999999999999
aF-0.28000000000000003
aF-1.6064000000000001
aF-0.27110000000000001
aF-1.6577
aF-0.25430000000000003
aF-1.6503000000000001
aF-0.23319999999999999
aF-1.6413
aF-0.21859999999999999
aF-1.6597999999999999
aF-0.21049999999999999
aF-1.6904999999999999
aF-0.2016
aF-1.7773000000000001
aF-0.19900000000000001
aF-1.8767
aF-0.2109
aF-1.9359
aF-0.23089999999999999
aF-1.9978
aF-0.24640000000000001
aF-2.0724999999999998
aF-0.25979999999999998
aF-2.1566000000000001
aF-0.27289999999999998
aF-2.206
aF-0.27289999999999998
aF-2.2145999999999999
aF-0.2651
aF-2.1907000000000001
aF-0.25629999999999997
aF-2.0543999999999998
aF-0.24199999999999999
aF-1.8793
aF-0.23130000000000001
aF-1.7438
aF-0.22839999999999999
aF-1.5794999999999999
aF-0.2306
aF-1.4005000000000001
aF-0.23799999999999999
aF-1.2225999999999999
aF-0.24260000000000001
aF-1.0615000000000001
aF-0.2387
aF-0.94430000000000003
aF-0.22620000000000001
aF-0.83740000000000003
aF-0.20899999999999999
aF-0.75849999999999995
aF-0.19020000000000001
aF-0.69650000000000001
aF-0.17019999999999999
aF-0.61599999999999999
aF-0.153
aF-0.55349999999999999
aF-0.13789999999999999
aF-0.53310000000000002
aF-0.1232
aF-0.57450000000000001
aF-0.11409999999999999
aF-0.66930000000000001
aF-0.1051
aF-0.76919999999999999
aF-0.088800000000000004
aF-0.87139999999999995
aF-0.070599999999999996
aF-0.97840000000000005
aF-0.057599999999999998
aF-1.0469999999999999
aF-0.0533
aF-1.0386
aF-0.056399999999999999
aF-0.95630000000000004
aF-0.059499999999999997
aF-0.82779999999999998
aF-0.058999999999999997
aF-0.69359999999999999
aF-0.057099999999999998
aF-0.61119999999999997
aF-0.056000000000000001
aF-0.62209999999999999
aF-0.057000000000000002
aF-0.68059999999999998
aF-0.062700000000000006
aF-0.7056
aF-0.079100000000000004
aF-0.67030000000000001
aF-0.1047
aF-0.54879999999999995
aF-0.12759999999999999
aF-0.38679999999999998
aF-0.1452
aF-0.2989
aF-0.15790000000000001
aF-0.31419999999999998
aF-0.16980000000000001
aF-0.39300000000000002
aF-0.18720000000000001
aF-0.40329999999999999
aF-0.19900000000000001
aF-0.31940000000000002
aF-0.20780000000000001
aF-0.28260000000000002
aF-0.22639999999999999
aF-0.24060000000000001
aF-0.24329999999999999
aF-0.1958
aF-0.25119999999999998
aF-0.28549999999999998
aF-0.2515
aF-0.41539999999999999
aF-0.23960000000000001
aF-0.50060000000000004
aF-0.21290000000000001
aF-0.52070000000000005
aF-0.17050000000000001
aF-0.43769999999999998
aF-0.1208
aF-0.35320000000000001
aF-0.068599999999999994
aF-0.3256
aF-0.0112
aF-0.31840000000000002
aF0.043299999999999998
aF-0.3352
aF0.091800000000000007
aF-0.4017
aF0.1426
aF-0.55149999999999999
aF0.1971
aF-0.7994
aF0.24890000000000001
aF-1.0643
aF0.29199999999999998
aF-1.1858
aF0.32090000000000002
aF-1.1632
aF0.33289999999999997
aF-1.1274999999999999
aF0.33460000000000001
aF-1.1285000000000001
aF0.32950000000000002
aF-1.1700999999999999
aF0.3165
aF-1.1697
aF0.2959
aF-1.0758000000000001
aF0.26240000000000002
aF-0.93920000000000003
aF0.2233
aF-0.74839999999999995
aF0.19020000000000001
aF-0.57069999999999999
aF0.15740000000000001
aF-0.46260000000000001
aF0.1245
aF-0.3397
aF0.098699999999999996
aF-0.16919999999999999
aF0.089200000000000002
aF0.068500000000000005
aF0.1028
aF0.3453
aF0.1273
aF0.58260000000000001
aF0.1497
aF0.77639999999999998
aF0.1646
aF0.92310000000000003
aF0.17180000000000001
aF1.0326
aF0.18090000000000001
aF1.1361000000000001
aF0.1953
aF1.2657
aF0.20499999999999999
aF1.4463999999999999
aF0.20680000000000001
aF1.6188
aF0.21260000000000001
aF1.7093
aF0.2281
aF1.7043999999999999
aF0.2457
aF1.6702999999999999
aF0.2611
aF1.6585000000000001
aF0.2661
aF1.6143000000000001
aF0.25779999999999997
aF1.5015000000000001
aF0.24510000000000001
aF1.2956000000000001
aF0.22070000000000001
aF1.0253000000000001
aF0.17680000000000001
aF0.80740000000000001
aF0.122
aF0.66159999999999997
aF0.062
aF0.58909999999999996
aF0.00020000000000000001
aF0.58120000000000005
aF-0.059400000000000001
aF0.55779999999999996
aF-0.1114
aF0.53959999999999997
aF-0.1434
aF0.57410000000000005
aF-0.14580000000000001
aF0.65059999999999996
aF-0.12139999999999999
aF0.74860000000000004
aF-0.080600000000000005
aF0.81940000000000002
aF-0.030099999999999998
aF0.83040000000000003
aF0.029899999999999999
aF0.74539999999999995
aF0.089999999999999997
aF0.58909999999999996
aF0.1351
aF0.48849999999999999
aF0.16320000000000001
aF0.45050000000000001
aF0.1762
aF0.3982
aF0.17100000000000001
aF0.35099999999999998
aF0.15479999999999999
aF0.32679999999999998
aF0.13980000000000001
aF0.25819999999999999
aF0.12720000000000001
aF0.1084
aF0.1135
aF-0.0557
aF0.10059999999999999
aF-0.20349999999999999
aF0.093799999999999994
aF-0.38890000000000002
aF0.094399999999999998
aF-0.64039999999999997
aF0.1026
aF-0.96099999999999997
aF0.1201
aF-1.2708999999999999
aF0.14630000000000001
aF-1.4491000000000001
aF0.17810000000000001
aF-1.5391999999999999
aF0.20580000000000001
aF-1.5972999999999999
aF0.2213
aF-1.583
aF0.2301
aF-1.5379
aF0.23350000000000001
aF-1.5206999999999999
aF0.22839999999999999
aF-1.5386
aF0.22450000000000001
aF-1.5724
aF0.2271
aF-1.5665
aF0.2266
aF-1.5256000000000001
aF0.2127
aF-1.4837
aF0.18820000000000001
aF-1.4411
aF0.1628
aF-1.3895
aF0.13589999999999999
aF-1.2722
aF0.1069
aF-1.0629
aF0.083299999999999999
aF-0.79690000000000005
aF0.067900000000000002
aF-0.51000000000000001
aF0.061499999999999999
aF-0.2389
aF0.066400000000000001
aF0.030300000000000001
aF0.082199999999999995
aF0.30790000000000001
aF0.114
aF0.56579999999999997
aF0.16270000000000001
aF0.79410000000000003
aF0.21340000000000001
aF0.96340000000000003
aF0.2515
aF1.0687
aF0.27379999999999999
aF1.1299999999999999
aF0.28029999999999999
aF1.1322000000000001
aF0.26679999999999998
aF1.0979000000000001
aF0.2311
aF1.0801000000000001
aF0.1799
aF1.0888
aF0.11210000000000001
aF1.1266
aF0.031099999999999999
aF1.2269000000000001
aF-0.0402
aF1.3304
aF-0.097000000000000003
aF1.3157000000000001
aF-0.15359999999999999
aF1.2544999999999999
aF-0.2054
aF1.2244999999999999
aF-0.2445
aF1.1415
aF-0.27250000000000002
aF1.0067999999999999
aF-0.2878
aF0.83879999999999999
aF-0.29099999999999998
aF0.63949999999999996
aF-0.28739999999999999
aF0.50349999999999995
aF-0.27789999999999998
aF0.42730000000000001
aF-0.25640000000000002
aF0.32419999999999999
aF-0.22620000000000001
aF0.17879999999999999
aF-0.19950000000000001
aF0.061199999999999997
aF-0.18179999999999999
aF0.044499999999999998
aF-0.17380000000000001
aF0.059999999999999998
aF-0.16589999999999999
aF0.035499999999999997
aF-0.14610000000000001
aF-0.021899999999999999
aF-0.1285
aF-0.097799999999999998
aF-0.1227
aF-0.094700000000000006
aF-0.11799999999999999
aF0.020299999999999999
aF-0.12089999999999999
aF0.18079999999999999
aF-0.1447
aF0.3916
aF-0.1867
aF0.61529999999999996
aF-0.2364
aF0.78580000000000005
aF-0.2797
aF0.86950000000000005
aF-0.31130000000000002
aF0.84150000000000003
aF-0.33279999999999998
aF0.76980000000000004
aF-0.33929999999999999
aF0.65900000000000003
aF-0.33360000000000001
aF0.40960000000000002
aF-0.32679999999999998
aF0.062300000000000001
aF-0.3236
aF-0.25209999999999999
aF-0.32740000000000002
aF-0.4415
aF-0.34010000000000001
aF-0.47149999999999997
aF-0.36130000000000001
aF-0.3861
aF-0.39279999999999998
aF-0.21260000000000001
aF-0.42699999999999999
aF0.0263
aF-0.44829999999999998
aF0.2006
aF-0.45240000000000002
aF0.2266
aF-0.443
aF0.187
aF-0.41820000000000002
aF0.1108
aF-0.37709999999999999
aF-0.037600000000000001
aF-0.31869999999999998
aF-0.16500000000000001
aF-0.24110000000000001
aF-0.20019999999999999
aF-0.15090000000000001
aF-0.2036
aF-0.055300000000000002
aF-0.21879999999999999
aF0.0448
aF-0.23039999999999999
aF0.1459
aF-0.20730000000000001
aF0.2399
aF-0.14729999999999999
aF0.31669999999999998
aF-0.070199999999999999
aF0.36720000000000003
aF-0.0015
aF0.38800000000000001
aF0.0378
aF0.38790000000000002
aF0.057000000000000002
aF0.3785
aF0.0166
aF0.35139999999999999
aF-0.086999999999999994
aF0.29449999999999998
aF-0.14480000000000001
aF0.22170000000000001
aF-0.1525
aF0.1512
aF-0.1462
aF0.0848
aF-0.079899999999999999
aF0.025600000000000001
aF0.0141
aF-0.021600000000000001
aF0.046199999999999998
aF-0.066299999999999998
aF0.0041000000000000003
aF-0.1129
aF-0.041700000000000001
aF-0.1489
aF-0.073200000000000001
aF-0.17349999999999999
aF-0.1401
aF-0.19589999999999999
aF-0.20710000000000001
aF-0.2177
aF-0.25509999999999999
aF-0.2382
aF-0.32150000000000001
aF-0.24440000000000001
aF-0.39739999999999998
aF-0.224
aF-0.50519999999999998
aF-0.18840000000000001
aF-0.59830000000000005
aF-0.14410000000000001
aF-0.5736
aF-0.083400000000000002
aF-0.51329999999999998
aF-0.0064000000000000003
aF-0.50829999999999997
aF0.078
aF-0.4662
aF0.16289999999999999
aF-0.32179999999999997
aF0.24690000000000001
aF-0.13159999999999999
aF0.31879999999999997
aF0.069800000000000001
aF0.36570000000000003
aF0.27110000000000001
aF0.3947
aF0.3881
aF0.41660000000000003
aF0.37519999999999998
aF0.43219999999999997
aF0.31569999999999998
aF0.43740000000000001
aF0.28510000000000002
aF0.43459999999999999
aF0.28560000000000002
aF0.43540000000000001
aF0.29820000000000002
aF0.43740000000000001
aF0.31269999999999998
aF0.4289
aF0.33150000000000002
aF0.41170000000000001
aF0.34839999999999999
aF0.38750000000000001
aF0.3695
aF0.35339999999999999
aF0.40460000000000002
aF0.31090000000000001
aF0.4103
aF0.2621
aF0.3735
aF0.20910000000000001
aF0.34710000000000002
aF0.1487
aF0.34999999999999998
aF0.075499999999999998
aF0.40949999999999998
aF-0.00069999999999999999
aF0.55659999999999998
aF-0.062399999999999997
aF0.73750000000000004
aF-0.1055
aF0.91059999999999997
aF-0.13400000000000001
aF1.0728
aF-0.14760000000000001
aF1.2037
aF-0.14449999999999999
aF1.3092999999999999
aF-0.1205
aF1.4124000000000001
aF-0.075499999999999998
aF1.5511999999999999
aF-0.019699999999999999
aF1.7541
aF0.039
aF1.9342999999999999
aF0.0935
aF1.9883
aF0.12759999999999999
aF1.9447000000000001
aF0.13020000000000001
aF1.8773
aF0.1103
aF1.7874000000000001
aF0.077600000000000002
aF1.6447000000000001
aF0.025899999999999999
aF1.5026999999999999
aF-0.039
aF1.4180999999999999
aF-0.095699999999999993
aF1.2941
aF-0.14419999999999999
aF1.0659000000000001
aF-0.19550000000000001
aF0.84060000000000001
aF-0.247
aF0.68140000000000001
aF-0.29509999999999997
aF0.54779999999999995
aF-0.33910000000000001
aF0.40300000000000002
aF-0.37569999999999998
aF0.25090000000000001
aF-0.3997
aF0.097299999999999998
aF-0.4133
aF-0.1007
aF-0.42580000000000001
aF-0.31119999999999998
aF-0.42899999999999999
aF-0.48159999999999997
aF-0.41160000000000002
aF-0.64390000000000003
aF-0.38550000000000001
aF-0.75180000000000002
aF-0.36580000000000001
aF-0.82479999999999998
aF-0.35570000000000002
aF-0.94499999999999995
aF-0.3478
aF-1.0281
aF-0.32829999999999998
aF-1.0926
aF-0.29699999999999999
aF-1.2113
aF-0.26290000000000002
aF-1.3095000000000001
aF-0.22770000000000001
aF-1.4161999999999999
aF-0.19400000000000001
aF-1.5722
aF-0.1658
aF-1.7209000000000001
aF-0.14480000000000001
aF-1.8573999999999999
aF-0.13750000000000001
aF-1.9598
aF-0.14960000000000001
aF-1.9831000000000001
aF-0.1754
aF-1.9571000000000001
aF-0.2079
aF-1.9522999999999999
aF-0.2432
aF-1.9480999999999999
aF-0.2732
aF-1.8976999999999999
aF-0.29089999999999999
aF-1.8859999999999999
aF-0.29930000000000001
aF-1.9320999999999999
aF-0.30299999999999999
aF-1.9254
aF-0.2944
aF-1.8378000000000001
aF-0.26800000000000002
aF-1.7114
aF-0.23810000000000001
aF-1.6034999999999999
aF-0.2142
aF-1.5457000000000001
aF-0.1883
aF-1.5002
aF-0.15540000000000001
aF-1.4120999999999999
aF-0.11650000000000001
aF-1.2428999999999999
aF-0.082199999999999995
aF-1.0065
aF-0.068500000000000005
aF-0.76149999999999995
aF-0.071800000000000003
aF-0.55959999999999999
aF-0.082299999999999998
aF-0.4178
aF-0.098299999999999998
aF-0.3206
aF-0.112
aF-0.27279999999999999
aF-0.1158
aF-0.30349999999999999
aF-0.1137
aF-0.41789999999999999
aF-0.1111
aF-0.56279999999999997
aF-0.1055
aF-0.69910000000000005
aF-0.092600000000000002
aF-0.84619999999999995
aF-0.080500000000000002
aF-0.96040000000000003
aF-0.082900000000000001
aF-0.99109999999999998
aF-0.098900000000000002
aF-0.9748
aF-0.1198
aF-0.93130000000000002
aF-0.14699999999999999
aF-0.81879999999999997
aF-0.1825
aF-0.57669999999999999
aF-0.20780000000000001
aF-0.25040000000000001
aF-0.21179999999999999
aF0.058299999999999998
aF-0.20499999999999999
aF0.3599
aF-0.18659999999999999
aF0.64259999999999995
aF-0.152
aF0.89300000000000002
aF-0.1091
aF1.1596
aF-0.064899999999999999
aF1.3843000000000001
aF-0.0246
aF1.5324
aF0.0045999999999999999
aF1.6658999999999999
aF0.0178
aF1.7974000000000001
aF0.0241
aF1.8633999999999999
aF0.040599999999999997
aF1.7407999999999999
aF0.060100000000000001
aF1.4744999999999999
aF0.070599999999999996
aF1.2181
aF0.076100000000000001
aF0.91810000000000003
aF0.081299999999999997
aF0.55569999999999997
aF0.094799999999999995
aF0.19239999999999999
aF0.1104
aF-0.21049999999999999
aF0.1106
aF-0.55720000000000003
aF0.1075
aF-0.77359999999999995
aF0.1162
aF-0.9587
aF0.13100000000000001
aF-1.0968
aF0.1419
aF-1.1625000000000001
aF0.13869999999999999
aF-1.1825000000000001
aF0.1236
aF-1.1780999999999999
aF0.1019
aF-1.274
aF0.072599999999999998
aF-1.4467000000000001
aF0.040800000000000003
aF-1.5448
aF0.0016000000000000001
aF-1.5764
aF-0.051499999999999997
aF-1.5246999999999999
aF-0.097799999999999998
aF-1.3838999999999999
aF-0.1198
aF-1.2895000000000001
aF-0.1232
aF-1.2714000000000001
aF-0.1137
aF-1.2652000000000001
aF-0.093700000000000006
aF-1.2585
aF-0.067599999999999993
aF-1.222
aF-0.033599999999999998
aF-1.1269
aF0.0051000000000000004
aF-0.99429999999999996
aF0.035799999999999998
aF-0.84079999999999999
aF0.058299999999999998
aF-0.69679999999999997
aF0.078
aF-0.62119999999999997
aF0.089700000000000002
aF-0.60899999999999999
aF0.086400000000000005
aF-0.60999999999999999
aF0.0693
aF-0.58840000000000003
aF0.0521
aF-0.54520000000000002
aF0.042200000000000001
aF-0.54500000000000004
aF0.0304
aF-0.59740000000000004
aF0.017899999999999999
aF-0.63800000000000001
aF0.0089999999999999993
aF-0.65890000000000004
aF0.0028999999999999998
aF-0.68020000000000003
aF0.0083000000000000001
aF-0.72409999999999997
aF0.0292
aF-0.80900000000000005
aF0.066500000000000004
aF-0.9103
aF0.11749999999999999
aF-0.97509999999999997
aF0.17000000000000001
aF-0.95399999999999996
aF0.22389999999999999
aF-0.87719999999999998
aF0.2782
aF-0.79290000000000005
aF0.32019999999999998
aF-0.68559999999999999
aF0.34849999999999998
aF-0.58630000000000004
aF0.36199999999999999
aF-0.55879999999999996
aF0.35880000000000001
aF-0.627
aF0.34449999999999997
aF-0.78069999999999995
aF0.32229999999999998
aF-0.9466
aF0.29620000000000002
aF-1.0383
aF0.26929999999999998
aF-1.0274000000000001
aF0.2392
aF-0.95909999999999995
aF0.20380000000000001
aF-0.90849999999999997
aF0.1593
aF-0.88239999999999996
aF0.1061
aF-0.83940000000000003
aF0.0545
aF-0.74590000000000001
aF0.012200000000000001
aF-0.60370000000000001
aF-0.025399999999999999
aF-0.46110000000000001
aF-0.062600000000000003
aF-0.32469999999999999
aF-0.087499999999999994
aF-0.1777
aF-0.090499999999999997
aF-0.048099999999999997
aF-0.076600000000000001
aF0.080199999999999994
aF-0.054899999999999997
aF0.2306
aF-0.036600000000000001
aF0.32840000000000003
aF-0.0207
aF0.33289999999999997
aF0.0025999999999999999
aF0.31309999999999999
aF0.026200000000000001
aF0.31540000000000001
aF0.040000000000000001
aF0.32800000000000001
aF0.047600000000000003
aF0.3332
aF0.051299999999999998
aF0.30669999999999997
aF0.0436
aF0.2422
aF0.019099999999999999
aF0.17449999999999999
aF-0.0154
aF0.1173
aF-0.051999999999999998
aF0.056599999999999998
aF-0.091200000000000003
aF-0.0241
aF-0.13370000000000001
aF-0.19570000000000001
aF-0.17749999999999999
aF-0.46800000000000003
aF-0.21820000000000001
aF-0.7258
aF-0.25230000000000002
aF-0.96599999999999997
aF-0.27960000000000002
aF-1.2414000000000001
aF-0.30020000000000002
aF-1.4781
aF-0.31609999999999999
aF-1.6355999999999999
aF-0.32429999999999998
aF-1.7215
aF-0.31730000000000003
aF-1.728
aF-0.30330000000000001
aF-1.6605000000000001
aF-0.29149999999999998
aF-1.5221
aF-0.27400000000000002
aF-1.4133
aF-0.25080000000000002
aF-1.3893
aF-0.22739999999999999
aF-1.3097000000000001
aF-0.2072
aF-1.1267
aF-0.20119999999999999
aF-0.8891
aF-0.20730000000000001
aF-0.60289999999999999
aF-0.2127
aF-0.33710000000000001
aF-0.21360000000000001
aF-0.14580000000000001
aF-0.21079999999999999
aF-0.0281
aF-0.21060000000000001
aF0.033099999999999997
aF-0.20449999999999999
aF0.089200000000000002
aF-0.17399999999999999
aF0.1431
aF-0.13009999999999999
aF0.2082
aF-0.093100000000000002
aF0.3034
aF-0.069000000000000006
aF0.3629
aF-0.053699999999999998
aF0.40339999999999998
aF-0.035900000000000001
aF0.48259999999999997
aF-0.019099999999999999
aF0.57469999999999999
aF-0.011900000000000001
aF0.68359999999999999
aF-0.01
aF0.80820000000000003
aF-0.010999999999999999
aF0.92669999999999997
aF-0.013100000000000001
aF1.0266
aF-0.019099999999999999
aF1.0669
aF-0.032899999999999999
aF1.0851999999999999
aF-0.047600000000000003
aF1.1486000000000001
aF-0.0613
aF1.2331000000000001
aF-0.069500000000000006
aF1.2863
aF-0.062899999999999998
aF1.2536
aF-0.050200000000000002
aF1.1621999999999999
aF-0.042000000000000003
aF1.0762
aF-0.0378
aF0.94630000000000003
aF-0.038300000000000001
aF0.76939999999999997
aF-0.0424
aF0.61960000000000004
aF-0.052699999999999997
aF0.48380000000000001
aF-0.074999999999999997
aF0.36199999999999999
aF-0.10290000000000001
aF0.32569999999999999
aF-0.1237
aF0.3916
aF-0.13619999999999999
aF0.49530000000000002
aF-0.1525
aF0.59209999999999996
aF-0.1774
aF0.67859999999999998
aF-0.2054
aF0.71450000000000002
aF-0.2364
aF0.69620000000000004
aF-0.26190000000000002
aF0.67989999999999995
aF-0.2722
aF0.65820000000000001
aF-0.2772
aF0.6341
aF-0.27529999999999999
aF0.6139
aF-0.25690000000000002
aF0.52790000000000004
aF-0.23519999999999999
aF0.38800000000000001
aF-0.22559999999999999
aF0.27760000000000001
aF-0.2253
aF0.21970000000000001
aF-0.224
aF0.1661
aF-0.21940000000000001
aF0.055199999999999999
aF-0.2107
aF-0.058599999999999999
aF-0.1862
aF-0.17449999999999999
aF-0.1449
aF-0.37290000000000001
aF-0.092299999999999993
aF-0.55169999999999997
aF-0.033099999999999997
aF-0.65549999999999997
aF0.018800000000000001
aF-0.70569999999999999
aF0.063200000000000006
aF-0.63880000000000003
aF0.1011
aF-0.5252
aF0.12239999999999999
aF-0.40379999999999999
aF0.12939999999999999
aF-0.27000000000000002
aF0.11509999999999999
aF-0.21909999999999999
aF0.072900000000000006
aF-0.16420000000000001
aF0.019199999999999998
aF-0.071199999999999999
aF-0.043900000000000002
aF-0.051200000000000002
aF-0.1182
aF-0.061199999999999997
aF-0.18870000000000001
aF-0.099900000000000003
aF-0.24940000000000001
aF-0.18129999999999999
aF-0.29820000000000002
aF-0.27550000000000002
aF-0.33339999999999997
aF-0.41560000000000002
aF-0.36020000000000002
aF-0.54830000000000001
aF-0.37669999999999998
aF-0.67649999999999999
aF-0.37880000000000003
aF-0.85099999999999998
aF-0.37330000000000002
aF-0.998
aF-0.36659999999999998
aF-1.1135999999999999
aF-0.35859999999999997
aF-1.2003999999999999
aF-0.34970000000000001
aF-1.1950000000000001
aF-0.34110000000000001
aF-1.1415999999999999
aF-0.33079999999999998
aF-1.1318999999999999
aF-0.31509999999999999
aF-1.1897
aF-0.29089999999999999
aF-1.2479
aF-0.25590000000000002
aF-1.2221
aF-0.2137
aF-1.1087
aF-0.17150000000000001
aF-0.9637
aF-0.13109999999999999
aF-0.83250000000000002
aF-0.091899999999999996
aF-0.68820000000000003
aF-0.050700000000000002
aF-0.50980000000000003
aF-0.0053
aF-0.34570000000000001
aF0.038399999999999997
aF-0.21010000000000001
aF0.078399999999999997
aF-0.1111
aF0.1181
aF-0.0751
aF0.1605
aF-0.072999999999999995
aF0.2059
aF-0.10009999999999999
aF0.2462
aF-0.2077
aF0.2772
aF-0.42699999999999999
aF0.30070000000000002
aF-0.75409999999999999
aF0.31459999999999999
aF-1.1303000000000001
aF0.31859999999999999
aF-1.4819
aF0.30909999999999999
aF-1.7927
aF0.28899999999999998
aF-2.0762999999999998
aF0.26919999999999999
aF-2.3197999999999999
aF0.249
aF-2.4531000000000001
aF0.22919999999999999
aF-2.4601000000000002
aF0.21310000000000001
aF-2.4495
aF0.19520000000000001
aF-2.4695999999999998
aF0.17100000000000001
aF-2.4586000000000001
aF0.14560000000000001
aF-2.4272
aF0.123
aF-2.4762
aF0.092100000000000001
aF-2.5929000000000002
aF0.047800000000000002
aF-2.6509
aF-0.0025000000000000001
aF-2.6497000000000002
aF-0.057799999999999997
aF-2.641
aF-0.1096
aF-2.5956999999999999
aF-0.15129999999999999
aF-2.5087000000000002
aF-0.17949999999999999
aF-2.3898000000000001
aF-0.1794
aF-2.2766999999999999
aF-0.157
aF-2.1482999999999999
aF-0.12479999999999999
aF-1.8914
aF-0.079600000000000004
aF-1.5767
aF-0.031699999999999999
aF-1.3301000000000001
aF0.0091999999999999998
aF-1.1046
aF0.045699999999999998
aF-0.80549999999999999
aF0.075499999999999998
aF-0.40350000000000003
aF0.094299999999999995
aF0.0058999999999999999
aF0.1011
aF0.3715
aF0.094299999999999995
aF0.71299999999999997
aF0.069400000000000003
aF1.0155000000000001
aF0.0356
aF1.3196000000000001
aF0.0045999999999999999
aF1.5733999999999999
aF-0.031399999999999997
aF1.7202
aF-0.068099999999999994
aF1.8521000000000001
aF-0.094200000000000006
aF1.9659
aF-0.11409999999999999
aF2.0470999999999999
aF-0.12089999999999999
aF2.0914999999999999
aF-0.10630000000000001
aF2.0434000000000001
aF-0.088800000000000004
aF1.9430000000000001
aF-0.091499999999999998
aF1.8424
aF-0.10829999999999999
aF1.8052999999999999
aF-0.1202
aF1.8339000000000001
aF-0.13159999999999999
aF1.8331999999999999
aF-0.15049999999999999
aF1.8459000000000001
aF-0.17610000000000001
aF1.8896999999999999
aF-0.2072
aF1.8891
aF-0.22600000000000001
aF1.8553999999999999
aF-0.22550000000000001
aF1.8172999999999999
aF-0.21970000000000001
aF1.7742
aF-0.20680000000000001
aF1.6928000000000001
aF-0.18229999999999999
aF1.5929
aF-0.15279999999999999
aF1.5525
aF-0.1153
aF1.5768
aF-0.063899999999999998
aF1.6492
aF-0.0035999999999999999
aF1.7388999999999999
aF0.056800000000000003
aF1.8251999999999999
aF0.1135
aF1.9302999999999999
aF0.1663
aF2.0577999999999999
aF0.21709999999999999
aF2.2149000000000001
aF0.26090000000000002
aF2.3687999999999998
aF0.2903
aF2.4811000000000001
aF0.31159999999999999
aF2.5455999999999999
aF0.33019999999999999
aF2.5367999999999999
aF0.33860000000000001
aF2.4998999999999998
aF0.33489999999999998
aF2.4704999999999999
aF0.32719999999999999
aF2.3935
aF0.32000000000000001
aF2.2372999999999998
aF0.30690000000000001
aF2.0341
aF0.28520000000000001
aF1.8725000000000001
aF0.2581
aF1.754
aF0.2203
aF1.6180000000000001
aF0.18160000000000001
aF1.4957
aF0.15490000000000001
aF1.3512
aF0.12820000000000001
aF1.1388
aF0.1008
aF0.9536
aF0.087400000000000005
aF0.80149999999999999
aF0.084000000000000005
aF0.60580000000000001
aF0.085400000000000004
aF0.41149999999999998
aF0.094799999999999995
aF0.2596
aF0.1089
aF0.1118
aF0.12820000000000001
aF-0.045400000000000003
aF0.15590000000000001
aF-0.2334
aF0.18060000000000001
aF-0.43269999999999997
aF0.19400000000000001
aF-0.57979999999999998
aF0.2039
aF-0.69910000000000005
aF0.21379999999999999
aF-0.79220000000000002
aF0.22209999999999999
aF-0.85029999999999994
aF0.22989999999999999
aF-0.91639999999999999
aF0.23999999999999999
aF-0.96819999999999995
aF0.2545
aF-1.0511999999999999
aF0.26700000000000002
aF-1.2018
aF0.2737
aF-1.3173999999999999
aF0.27639999999999998
aF-1.409
aF0.26929999999999998
aF-1.5247999999999999
aF0.25309999999999999
aF-1.6471
aF0.2321
aF-1.8015000000000001
aF0.2056
aF-1.9496
aF0.1804
aF-2.0230000000000001
aF0.15989999999999999
aF-1.9852000000000001
aF0.14360000000000001
aF-1.8213999999999999
aF0.13289999999999999
aF-1.6423000000000001
aF0.11990000000000001
aF-1.5459000000000001
aF0.1026
aF-1.4838
aF0.088499999999999995
aF-1.4278
aF0.076100000000000001
aF-1.3787
aF0.064500000000000002
aF-1.2595000000000001
aF0.058799999999999998
aF-1.0485
aF0.055199999999999999
aF-0.80900000000000005
aF0.047899999999999998
aF-0.54800000000000004
aF0.042000000000000003
aF-0.3196
aF0.0378
aF-0.20519999999999999
aF0.0258
aF-0.1789
aF0.00059999999999999995
aF-0.24759999999999999
aF-0.035900000000000001
aF-0.4128
aF-0.072999999999999995
aF-0.61370000000000002
aF-0.099299999999999999
aF-0.83140000000000003
aF-0.1153
aF-0.98950000000000005
aF-0.1249
aF-1.0286999999999999
aF-0.125
aF-1.0177
aF-0.10929999999999999
aF-0.98709999999999998
aF-0.083199999999999996
aF-0.91300000000000003
aF-0.052600000000000001
aF-0.80059999999999998
aF-0.0077000000000000002
aF-0.72729999999999995
aF0.055300000000000002
aF-0.77100000000000002
aF0.127
aF-0.92220000000000002
aF0.19850000000000001
aF-1.1668000000000001
aF0.26879999999999998
aF-1.4234
aF0.3422
aF-1.5955999999999999
aF0.40679999999999999
aF-1.7452000000000001
aF0.44429999999999997
aF-1.9072
aF0.45529999999999998
aF-2.0634999999999999
aF0.4476
aF-2.2464
aF0.42520000000000002
aF-2.4329000000000001
aF0.3876
aF-2.5541
aF0.33829999999999999
aF-2.5291000000000001
aF0.2853
aF-2.3477000000000001
aF0.23039999999999999
aF-2.0737999999999999
aF0.18210000000000001
aF-1.7181999999999999
aF0.1429
aF-1.3468
aF0.1032
aF-1.0234000000000001
aF0.067900000000000002
aF-0.71530000000000005
aF0.041399999999999999
aF-0.437
aF0.023699999999999999
aF-0.2054
aF0.0103
aF-0.054300000000000001
aF-0.0138
aF-0.0095999999999999992
aF-0.044200000000000003
aF0.0083999999999999995
aF-0.077499999999999999
aF0.027400000000000001
aF-0.1239
aF0.052900000000000003
aF-0.17399999999999999
aF0.1041
aF-0.2155
aF0.13819999999999999
aF-0.2412
aF0.155
aF-0.24929999999999999
aF0.1734
aF-0.2515
aF0.21940000000000001
aF-0.25069999999999998
aF0.32219999999999999
aF-0.24979999999999999
aF0.44209999999999999
aF-0.25340000000000001
aF0.55669999999999997
aF-0.25590000000000002
aF0.63600000000000001
aF-0.25819999999999999
aF0.65669999999999995
aF-0.26040000000000002
aF0.64459999999999995
aF-0.26179999999999998
aF0.58150000000000002
aF-0.26650000000000001
aF0.50519999999999998
aF-0.27079999999999999
aF0.51000000000000001
aF-0.27279999999999999
aF0.6079
aF-0.2742
aF0.72030000000000005
aF-0.27950000000000003
aF0.77929999999999999
aF-0.29239999999999999
aF0.86729999999999996
aF-0.30199999999999999
aF0.99950000000000006
aF-0.30370000000000003
aF1.0590999999999999
aF-0.30399999999999999
aF1.0871
aF-0.3049
aF1.1507000000000001
aF-0.30580000000000002
aF1.2644
aF-0.3004
aF1.4334
aF-0.28749999999999998
aF1.5499000000000001
aF-0.26519999999999999
aF1.5844
aF-0.22839999999999999
aF1.5971
aF-0.18920000000000001
aF1.619
aF-0.1537
aF1.6780999999999999
aF-0.12130000000000001
aF1.6967000000000001
aF-0.1047
aF1.6351
aF-0.1042
aF1.5375000000000001
aF-0.11700000000000001
aF1.3787
aF-0.1449
aF1.2040999999999999
aF-0.17829999999999999
aF1.0765
aF-0.2074
aF0.96960000000000002
aF-0.22689999999999999
aF0.81169999999999998
aF-0.24340000000000001
aF0.52629999999999999
aF-0.26340000000000002
aF0.1883
aF-0.27660000000000001
aF-0.1724
aF-0.28549999999999998
aF-0.60670000000000002
aF-0.29709999999999998
aF-0.96360000000000001
aF-0.30020000000000002
aF-1.1741999999999999
aF-0.2883
aF-1.3005
aF-0.26300000000000001
aF-1.3348
aF-0.22439999999999999
aF-1.3593
aF-0.17319999999999999
aF-1.4072
aF-0.1119
aF-1.4491000000000001
aF-0.051900000000000002
aF-1.5377000000000001
aF-0.0044999999999999997
aF-1.6482000000000001
aF0.022200000000000001
aF-1.7353000000000001
aF0.025499999999999998
aF-1.7833000000000001
aF0.02
aF-1.7957000000000001
aF0.0138
aF-1.8427
aF0.0079000000000000008
aF-1.9256
aF0.01
aF-2.0110999999999999
aF0.016
aF-2.0729000000000002
aF0.023099999999999999
aF-2.0739999999999998
aF0.038800000000000001
aF-2.0445000000000002
aF0.059700000000000003
aF-1.9905999999999999
aF0.080699999999999994
aF-1.917
aF0.0969
aF-1.8479000000000001
aF0.10290000000000001
aF-1.7495000000000001
aF0.1043
aF-1.6604000000000001
aF0.10009999999999999
aF-1.6211
aF0.084099999999999994
aF-1.5806
aF0.063
aF-1.5319
aF0.048899999999999999
aF-1.5022
aF0.046899999999999997
aF-1.47
aF0.056599999999999998
aF-1.3233999999999999
aF0.081100000000000005
aF-1.0250999999999999
aF0.1115
aF-0.71030000000000004
aF0.1288
aF-0.42270000000000002
aF0.13519999999999999
aF-0.1704
aF0.13200000000000001
aF-0.059400000000000001
aF0.1065
aF-0.0067000000000000002
aF0.068000000000000005
aF0.16850000000000001
aF0.033500000000000002
aF0.4148
aF0.0048999999999999998
aF0.59970000000000001
aF-0.0195
aF0.7006
aF-0.035099999999999999
aF0.76370000000000005
aF-0.029899999999999999
aF0.84250000000000003
aF-0.0054999999999999997
aF0.92759999999999998
aF0.0178
aF1.0462
aF0.036799999999999999
aF1.2728999999999999
aF0.067400000000000002
aF1.4968999999999999
aF0.10829999999999999
aF1.6066
aF0.14480000000000001
aF1.7228000000000001
aF0.17780000000000001
aF1.9169
aF0.21110000000000001
aF2.1261999999999999
aF0.23719999999999999
aF2.3386999999999998
aF0.255
aF2.5756999999999999
aF0.2666
aF2.7616999999999998
aF0.2636
aF2.7909999999999999
aF0.23799999999999999
aF2.7246000000000001
aF0.19750000000000001
aF2.6042999999999998
aF0.15240000000000001
aF2.3565999999999998
aF0.1037
aF2.0830000000000002
aF0.057000000000000002
aF1.8916999999999999
aF0.014999999999999999
aF1.7363
aF-0.024199999999999999
aF1.6377999999999999
aF-0.058900000000000001
aF1.5874999999999999
aF-0.097900000000000001
aF1.5152000000000001
aF-0.1459
aF1.4202999999999999
aF-0.19009999999999999
aF1.3044
aF-0.22090000000000001
aF1.1849000000000001
aF-0.2339
aF1.0649
aF-0.23549999999999999
aF0.9365
aF-0.23369999999999999
aF0.87839999999999996
aF-0.22140000000000001
aF0.89900000000000002
aF-0.19639999999999999
aF0.93489999999999995
aF-0.16589999999999999
aF0.98109999999999997
aF-0.13719999999999999
aF0.99160000000000004
aF-0.1158
aF0.9395
aF-0.097000000000000003
aF0.86570000000000003
aF-0.079200000000000007
aF0.80859999999999999
aF-0.065699999999999995
aF0.83699999999999997
aF-0.055199999999999999
aF0.91120000000000001
aF-0.051799999999999999
aF0.92659999999999998
aF-0.056000000000000001
aF0.91920000000000002
aF-0.057799999999999997
aF0.89319999999999999
aF-0.056399999999999999
aF0.80069999999999997
aF-0.0591
aF0.69399999999999995
aF-0.065500000000000003
aF0.61909999999999998
aF-0.073499999999999996
aF0.54410000000000003
aF-0.084099999999999994
aF0.41970000000000002
aF-0.089200000000000002
aF0.26390000000000002
aF-0.080100000000000005
aF0.124
aF-0.066100000000000006
aF-0.0027000000000000001
aF-0.064699999999999994
aF-0.092899999999999996
aF-0.082799999999999999
aF-0.13500000000000001
aF-0.1111
aF-0.17499999999999999
aF-0.1424
aF-0.24310000000000001
aF-0.18229999999999999
aF-0.33429999999999999
aF-0.22819999999999999
aF-0.40339999999999998
aF-0.26840000000000003
aF-0.44629999999999997
aF-0.30420000000000003
aF-0.48580000000000001
aF-0.33739999999999998
aF-0.50380000000000003
aF-0.3619
aF-0.52600000000000002
aF-0.37509999999999999
aF-0.56920000000000004
aF-0.38040000000000002
aF-0.62709999999999999
aF-0.38379999999999997
aF-0.6946
aF-0.38490000000000002
aF-0.70120000000000005
aF-0.38019999999999998
aF-0.64559999999999995
aF-0.36849999999999999
aF-0.57099999999999995
aF-0.34320000000000001
aF-0.496
aF-0.30909999999999999
aF-0.50270000000000004
aF-0.28160000000000002
aF-0.56499999999999995
aF-0.25750000000000001
aF-0.63070000000000004
aF-0.23330000000000001
aF-0.77669999999999995
aF-0.2177
aF-0.93200000000000005
aF-0.21029999999999999
aF-0.98080000000000001
aF-0.2077
aF-0.98199999999999998
aF-0.20910000000000001
aF-0.96719999999999995
aF-0.20669999999999999
aF-0.93200000000000005
aF-0.19639999999999999
aF-0.93540000000000001
aF-0.1862
aF-1.0066999999999999
aF-0.1835
aF-1.1249
aF-0.18779999999999999
aF-1.2659
aF-0.1971
aF-1.4192
aF-0.2082
aF-1.5633999999999999
aF-0.2205
aF-1.603
aF-0.2334
aF-1.4712000000000001
aF-0.23780000000000001
aF-1.2802
aF-0.23710000000000001
aF-1.1339999999999999
aF-0.24179999999999999
aF-1.0239
aF-0.2467
aF-0.99609999999999999
aF-0.25059999999999999
aF-1.0394000000000001
aF-0.24809999999999999
aF-1.0708
aF-0.22550000000000001
aF-1.1285000000000001
aF-0.18509999999999999
aF-1.2190000000000001
aF-0.12839999999999999
aF-1.278
aF-0.056800000000000003
aF-1.3066
aF0.019
aF-1.3092999999999999
aF0.098000000000000004
aF-1.3169
aF0.17899999999999999
aF-1.3629
aF0.247
aF-1.3928
aF0.29060000000000002
aF-1.3798999999999999
aF0.31190000000000001
aF-1.3872
aF0.307
aF-1.4366000000000001
aF0.26939999999999997
aF-1.4497
aF0.2157
aF-1.4179999999999999
aF0.15720000000000001
aF-1.4131
aF0.089999999999999997
aF-1.4019999999999999
aF0.0252
aF-1.3726
aF-0.032899999999999999
aF-1.3701000000000001
aF-0.086300000000000002
aF-1.3388
aF-0.1235
aF-1.2707999999999999
aF-0.14779999999999999
aF-1.232
aF-0.17280000000000001
aF-1.2034
aF-0.19520000000000001
aF-1.1628000000000001
aF-0.21029999999999999
aF-1.1065
aF-0.22170000000000001
aF-0.98399999999999999
aF-0.2321
aF-0.81289999999999996
aF-0.24890000000000001
aF-0.6673
aF-0.2823
aF-0.50449999999999995
aF-0.32079999999999997
aF-0.29709999999999998
aF-0.3473
aF-0.1283
aF-0.36549999999999999
aF0.0016999999999999999
aF-0.38240000000000002
aF0.1148
aF-0.39839999999999998
aF0.17910000000000001
aF-0.40939999999999999
aF0.20680000000000001
aF-0.40570000000000001
aF0.18340000000000001
aF-0.3881
aF0.1013
aF-0.36520000000000002
aF0.0076
aF-0.33410000000000001
aF-0.085199999999999998
aF-0.28410000000000002
aF-0.16950000000000001
aF-0.2157
aF-0.2379
aF-0.1411
aF-0.32040000000000002
aF-0.070900000000000005
aF-0.4622
aF-0.0089999999999999993
aF-0.66830000000000001
aF0.047100000000000003
aF-0.86509999999999998
aF0.092299999999999993
aF-0.97519999999999996
aF0.1202
aF-0.97619999999999996
aF0.14419999999999999
aF-0.93240000000000001
aF0.16750000000000001
aF-0.91279999999999994
aF0.17319999999999999
aF-0.84189999999999998
aF0.16250000000000001
aF-0.66949999999999998
aF0.14410000000000001
aF-0.49380000000000002
a(I2
I2048
tp10
g5
tp11
Rp12
s.